; ModuleID = 'new.bc'
target datalayout = "e-m:e-p:32:32-f64:32:64-f80:32-n8:16:32-S128"
target triple = "i386-pc-linux-gnu"

%"class.std::ios_base::Init" = type { i8 }
%"class.std::basic_ostream" = type { i32 (...)**, %"class.std::basic_ios" }
%"class.std::basic_ios" = type { %"class.std::ios_base", %"class.std::basic_ostream"*, i8, i8, %"class.std::basic_streambuf"*, %"class.std::ctype"*, %"class.std::num_put"*, %"class.std::num_get"* }
%"class.std::ios_base" = type { i32 (...)**, i32, i32, i32, i32, i32, %"struct.std::ios_base::_Callback_list"*, %"struct.std::ios_base::_Words", [8 x %"struct.std::ios_base::_Words"], i32, %"struct.std::ios_base::_Words"*, %"class.std::locale" }
%"struct.std::ios_base::_Callback_list" = type { %"struct.std::ios_base::_Callback_list"*, void (i32, %"class.std::ios_base"*, i32)*, i32, i32 }
%"struct.std::ios_base::_Words" = type { i8*, i32 }
%"class.std::locale" = type { %"class.std::locale::_Impl"* }
%"class.std::locale::_Impl" = type { i32, %"class.std::locale::facet"**, i32, %"class.std::locale::facet"**, i8** }
%"class.std::locale::facet" = type { i32 (...)**, i32 }
%"class.std::basic_streambuf" = type { i32 (...)**, i8*, i8*, i8*, i8*, i8*, i8*, %"class.std::locale" }
%"class.std::ctype" = type { %"class.std::locale::facet", %struct.__locale_struct*, i8, i32*, i32*, i16*, i8, [256 x i8], [256 x i8], i8 }
%struct.__locale_struct = type { [13 x %struct.__locale_data*], i16*, i32*, i32*, [13 x i8*] }
%struct.__locale_data = type opaque
%"class.std::num_put" = type { %"class.std::locale::facet" }
%"class.std::num_get" = type { %"class.std::locale::facet" }
%class.YAML_Element = type { %"class.std::basic_string", %"class.std::basic_string", %"class.std::vector" }
%"class.std::basic_string" = type { %"struct.std::basic_string<char, std::char_traits<char>, std::allocator<char> >::_Alloc_hider" }
%"struct.std::basic_string<char, std::char_traits<char>, std::allocator<char> >::_Alloc_hider" = type { i8* }
%"class.std::vector" = type { %"struct.std::_Vector_base" }
%"struct.std::_Vector_base" = type { %"struct.std::_Vector_base<YAML_Element *, std::allocator<YAML_Element *> >::_Vector_impl" }
%"struct.std::_Vector_base<YAML_Element *, std::allocator<YAML_Element *> >::_Vector_impl" = type { %class.YAML_Element**, %class.YAML_Element**, %class.YAML_Element** }
%class.YAML_Doc = type { %class.YAML_Element, %"class.std::basic_string", %"class.std::basic_string", %"class.std::basic_string", %"class.std::basic_string" }
%"class.std::allocator" = type { i8 }
%struct.HPC_Sparse_Matrix_STRUCT = type { i8*, i32, i32, i32, i64, i32, i32, i32, i32*, double**, i32**, double**, double*, i32* }
%"struct.std::basic_string<char, std::char_traits<char>, std::allocator<char> >::_Rep" = type { %"struct.std::basic_string<char, std::char_traits<char>, std::allocator<char> >::_Rep_base" }
%"struct.std::basic_string<char, std::char_traits<char>, std::allocator<char> >::_Rep_base" = type { i32, i32, i32 }
%struct._IO_FILE = type { i32, i8*, i8*, i8*, i8*, i8*, i8*, i8*, i8*, i8*, i8*, i8*, %struct._IO_marker*, %struct._IO_FILE*, i32, i32, i32, i16, i8, [1 x i8], i8*, i64, i8*, i8*, i8*, i8*, i32, i32, [40 x i8] }
%struct._IO_marker = type { %struct._IO_marker*, %struct._IO_FILE*, i32 }
%struct.rusage = type { %struct.timeval, %struct.timeval, %union.anon, %union.anon.0, %union.anon.1, %union.anon.2, %union.anon.3, %union.anon.4, %union.anon.5, %union.anon.6, %union.anon.7, %union.anon.8, %union.anon.9, %union.anon.10, %union.anon.11, %union.anon.12 }
%struct.timeval = type { i32, i32 }
%union.anon = type { i32 }
%union.anon.0 = type { i32 }
%union.anon.1 = type { i32 }
%union.anon.2 = type { i32 }
%union.anon.3 = type { i32 }
%union.anon.4 = type { i32 }
%union.anon.5 = type { i32 }
%union.anon.6 = type { i32 }
%union.anon.7 = type { i32 }
%union.anon.8 = type { i32 }
%union.anon.9 = type { i32 }
%union.anon.10 = type { i32 }
%union.anon.11 = type { i32 }
%union.anon.12 = type { i32 }
%"class.__gnu_cxx::__normal_iterator" = type { %class.YAML_Element** }
%"class.std::basic_stringstream" = type { %"class.std::basic_iostream.base", %"class.std::basic_stringbuf", %"class.std::basic_ios" }
%"class.std::basic_iostream.base" = type { %"class.std::basic_istream.base", %"class.std::basic_ostream.base" }
%"class.std::basic_istream.base" = type { i32 (...)**, i32 }
%"class.std::basic_ostream.base" = type { i32 (...)** }
%"class.std::basic_stringbuf" = type { %"class.std::basic_streambuf", i32, %"class.std::basic_string" }
%"class.std::basic_ofstream" = type { %"class.std::basic_ostream.base", %"class.std::basic_filebuf", %"class.std::basic_ios" }
%"class.std::basic_filebuf" = type { %"class.std::basic_streambuf", %union.pthread_mutex_t, %"class.std::__basic_file", i32, %struct.__mbstate_t, %struct.__mbstate_t, %struct.__mbstate_t, i8*, i32, i8, i8, i8, i8, i8*, i8*, i8, %"class.std::codecvt"*, i8*, i32, i8*, i8* }
%union.pthread_mutex_t = type { %"struct.(anonymous union)::__pthread_mutex_s" }
%"struct.(anonymous union)::__pthread_mutex_s" = type { i32, i32, i32, i32, i32, %union.anon.63 }
%union.anon.63 = type { %struct.__pthread_internal_slist }
%struct.__pthread_internal_slist = type { %struct.__pthread_internal_slist* }
%"class.std::__basic_file" = type { %struct._IO_FILE*, i8 }
%struct.__mbstate_t = type { i32, %union.anon.3 }
%"class.std::codecvt" = type { %"class.std::__codecvt_abstract_base", %struct.__locale_struct* }
%"class.std::__codecvt_abstract_base" = type { %"class.std::locale::facet" }
%struct.tm = type { i32, i32, i32, i32, i32, i32, i32, i32, i32, i32, i8* }

@_ZStL8__ioinit = internal global %"class.std::ios_base::Init" zeroinitializer, align 1
@__dso_handle = external global i8
@_ZSt4cerr = external global %"class.std::basic_ostream"
@.str = private unnamed_addr constant [7 x i8] c"Usage:\00", align 1
@.str1 = private unnamed_addr constant [9 x i8] c"Mode 1: \00", align 1
@.str2 = private unnamed_addr constant [10 x i8] c" nx ny nz\00", align 1
@.str3 = private unnamed_addr constant [64 x i8] c"     where nx, ny and nz are the local sub-block dimensions, or\00", align 1
@.str4 = private unnamed_addr constant [9 x i8] c"Mode 2: \00", align 1
@.str5 = private unnamed_addr constant [16 x i8] c" HPC_data_file \00", align 1
@.str6 = private unnamed_addr constant [79 x i8] c"     where HPC_data_file is a globally accessible file containing matrix data.\00", align 1
@.str7 = private unnamed_addr constant [22 x i8] c"Error in call to CG: \00", align 1
@.str8 = private unnamed_addr constant [3 x i8] c".\0A\00", align 1
@.str9 = private unnamed_addr constant [6 x i8] c"hpccg\00", align 1
@.str10 = private unnamed_addr constant [4 x i8] c"1.0\00", align 1
@.str11 = private unnamed_addr constant [1 x i8] zeroinitializer, align 1
@.str12 = private unnamed_addr constant [12 x i8] c"Parallelism\00", align 1
@.str13 = private unnamed_addr constant [16 x i8] c"MPI not enabled\00", align 1
@.str14 = private unnamed_addr constant [19 x i8] c"OpenMP not enabled\00", align 1
@.str15 = private unnamed_addr constant [11 x i8] c"Dimensions\00", align 1
@.str16 = private unnamed_addr constant [3 x i8] c"nx\00", align 1
@.str17 = private unnamed_addr constant [3 x i8] c"ny\00", align 1
@.str18 = private unnamed_addr constant [3 x i8] c"nz\00", align 1
@.str19 = private unnamed_addr constant [23 x i8] c"Number of iterations: \00", align 1
@.str20 = private unnamed_addr constant [17 x i8] c"Final residual: \00", align 1
@.str21 = private unnamed_addr constant [58 x i8] c"********** Performance Summary (times in sec) ***********\00", align 1
@.str22 = private unnamed_addr constant [13 x i8] c"Time Summary\00", align 1
@.str23 = private unnamed_addr constant [9 x i8] c"Total   \00", align 1
@.str24 = private unnamed_addr constant [9 x i8] c"DDOT    \00", align 1
@.str25 = private unnamed_addr constant [9 x i8] c"WAXPBY  \00", align 1
@.str26 = private unnamed_addr constant [9 x i8] c"SPARSEMV\00", align 1
@.str27 = private unnamed_addr constant [14 x i8] c"FLOPS Summary\00", align 1
@.str28 = private unnamed_addr constant [15 x i8] c"MFLOPS Summary\00", align 1
@_ZSt4cout = external global %"class.std::basic_ostream"
@_ZNSs4_Rep20_S_empty_rep_storageE = external global [0 x i32]
@llvm.global_ctors = appending global [7 x { i32, void ()*, i8* }] [{ i32, void ()*, i8* } { i32 65535, void ()* @_GLOBAL__sub_I_main.cpp, i8* null }, { i32, void ()*, i8* } { i32 65535, void ()* @_GLOBAL__sub_I_generate_matrix.cpp, i8* null }, { i32, void ()*, i8* } { i32 65535, void ()* @_GLOBAL__sub_I_read_HPC_row.cpp, i8* null }, { i32, void ()*, i8* } { i32 65535, void ()* @_GLOBAL__sub_I_HPC_sparsemv.cpp, i8* null }, { i32, void ()*, i8* } { i32 65535, void ()* @_GLOBAL__sub_I_HPCCG.cpp, i8* null }, { i32, void ()*, i8* } { i32 65535, void ()* @_GLOBAL__sub_I_YAML_Element.cpp, i8* null }, { i32, void ()*, i8* } { i32 65535, void ()* @_GLOBAL__sub_I_YAML_Doc.cpp, i8* null }]
@_ZStL8__ioinit1 = internal global %"class.std::ios_base::Init" zeroinitializer, align 1
@.str29 = private unnamed_addr constant [13 x i8] c"local_nrow>0\00", align 1
@.str130 = private unnamed_addr constant [20 x i8] c"generate_matrix.cpp\00", align 1
@__PRETTY_FUNCTION__._Z15generate_matrixiiiPP24HPC_Sparse_Matrix_STRUCTPPdS3_S3_ = private unnamed_addr constant [91 x i8] c"void generate_matrix(int, int, int, HPC_Sparse_Matrix **, double **, double **, double **)\00", align 1
@_ZStL8__ioinit34 = internal global %"class.std::ios_base::Init" zeroinitializer, align 1
@.str35 = private unnamed_addr constant [32 x i8] c"Reading matrix info from %s...\0A\00", align 1
@.str136 = private unnamed_addr constant [2 x i8] c"r\00", align 1
@.str237 = private unnamed_addr constant [29 x i8] c"Error: Cannot open file: %s\0A\00", align 1
@.str338 = private unnamed_addr constant [3 x i8] c"%d\00", align 1
@.str439 = private unnamed_addr constant [5 x i8] c"%lld\00", align 1
@.str540 = private unnamed_addr constant [26 x i8] c"cur_local_row==local_nrow\00", align 1
@.str641 = private unnamed_addr constant [17 x i8] c"read_HPC_row.cpp\00", align 1
@__PRETTY_FUNCTION__._Z12read_HPC_rowPcPP24HPC_Sparse_Matrix_STRUCTPPdS4_S4_ = private unnamed_addr constant [81 x i8] c"void read_HPC_row(char *, HPC_Sparse_Matrix **, double **, double **, double **)\00", align 1
@.str1042 = private unnamed_addr constant [7 x i8] c"%lf %d\00", align 1
@.str1243 = private unnamed_addr constant [12 x i8] c"%lf %lf %lf\00", align 1
@.str49 = private unnamed_addr constant [9 x i8] c"mat0.dat\00", align 1
@.str150 = private unnamed_addr constant [2 x i8] c"w\00", align 1
@.str251 = private unnamed_addr constant [9 x i8] c"mat1.dat\00", align 1
@.str352 = private unnamed_addr constant [9 x i8] c"mat2.dat\00", align 1
@.str453 = private unnamed_addr constant [9 x i8] c"mat3.dat\00", align 1
@.str554 = private unnamed_addr constant [16 x i8] c" %d %d %22.16e\0A\00", align 1
@_ZStL8__ioinit55 = internal global %"class.std::ios_base::Init" zeroinitializer, align 1
@_ZStL8__ioinit57 = internal global %"class.std::ios_base::Init" zeroinitializer, align 1
@.str58 = private unnamed_addr constant [20 x i8] c"Initial Residual = \00", align 1
@.str159 = private unnamed_addr constant [13 x i8] c"Iteration = \00", align 1
@.str260 = private unnamed_addr constant [15 x i8] c"   Residual = \00", align 1
@_ZStL8__ioinit68 = internal global %"class.std::ios_base::Init" zeroinitializer, align 1
@.str69 = private unnamed_addr constant [1 x i8] zeroinitializer, align 1
@.str170 = private unnamed_addr constant [3 x i8] c": \00", align 1
@.str271 = private unnamed_addr constant [2 x i8] c"\0A\00", align 1
@.str372 = private unnamed_addr constant [2 x i8] c" \00", align 1
@.str473 = private unnamed_addr constant [42 x i8] c"basic_string::_S_construct null not valid\00", align 1
@_ZNSs4_Rep11_S_terminalE = external constant i8
@_ZTVSt18basic_stringstreamIcSt11char_traitsIcESaIcEE = external unnamed_addr constant [15 x i8*]
@_ZTTSt18basic_stringstreamIcSt11char_traitsIcESaIcEE = external unnamed_addr constant [10 x i8*]
@_ZTVSt15basic_stringbufIcSt11char_traitsIcESaIcEE = external unnamed_addr constant [16 x i8*]
@_ZTVSt15basic_streambufIcSt11char_traitsIcEE = external unnamed_addr constant [16 x i8*]
@_ZTVSt9basic_iosIcSt11char_traitsIcEE = external unnamed_addr constant [4 x i8*]
@_ZStL8__ioinit85 = internal global %"class.std::ios_base::Init" zeroinitializer, align 1
@.str86 = private unnamed_addr constant [24 x i8] c"Mini-Application Name: \00", align 1
@.str187 = private unnamed_addr constant [2 x i8] c"\0A\00", align 1
@.str288 = private unnamed_addr constant [27 x i8] c"Mini-Application Version: \00", align 1
@.str389 = private unnamed_addr constant [1 x i8] zeroinitializer, align 1
@.str490 = private unnamed_addr constant [30 x i8] c"%04d:%02d:%02d-%02d:%02d:%02d\00", align 1
@.str591 = private unnamed_addr constant [2 x i8] c"-\00", align 1
@.str692 = private unnamed_addr constant [2 x i8] c"_\00", align 1
@.str793 = private unnamed_addr constant [6 x i8] c".yaml\00", align 1
@.str894 = private unnamed_addr constant [2 x i8] c".\00", align 1
@.str995 = private unnamed_addr constant [7 x i8] c"mkdir \00", align 1
@.str1096 = private unnamed_addr constant [2 x i8] c"/\00", align 1
@.str1197 = private unnamed_addr constant [3 x i8] c"./\00", align 1
@_ZTVSt14basic_ofstreamIcSt11char_traitsIcEE = external unnamed_addr constant [10 x i8*]
@_ZTTSt14basic_ofstreamIcSt11char_traitsIcEE = external unnamed_addr constant [4 x i8*]
@_ZTVSt13basic_filebufIcSt11char_traitsIcEE = external unnamed_addr constant [16 x i8*]

@_ZN12YAML_ElementC1ERKSsS1_ = alias void (%class.YAML_Element*, %"class.std::basic_string"*, %"class.std::basic_string"*)* @_ZN12YAML_ElementC2ERKSsS1_
@_ZN12YAML_ElementD1Ev = alias void (%class.YAML_Element*)* @_ZN12YAML_ElementD2Ev
@_ZN8YAML_DocC1ERKSsS1_S1_S1_ = alias void (%class.YAML_Doc*, %"class.std::basic_string"*, %"class.std::basic_string"*, %"class.std::basic_string"*, %"class.std::basic_string"*)* @_ZN8YAML_DocC2ERKSsS1_S1_S1_
@_ZN8YAML_DocD1Ev = alias void (%class.YAML_Doc*)* @_ZN8YAML_DocD2Ev

declare void @_ZNSt8ios_base4InitC1Ev(%"class.std::ios_base::Init"*) #0

declare void @_ZNSt8ios_base4InitD1Ev(%"class.std::ios_base::Init"*) #0

; Function Attrs: nounwind
declare i32 @__cxa_atexit(void (i8*)*, i8*, i8*) #1

define i32 @main(i32 %argc, i8** nocapture readonly %argv) #0 {
  %1 = alloca i32, align 4
  %2 = alloca %"class.std::allocator", align 1
  %3 = alloca i32, align 4
  %4 = alloca %"class.std::allocator", align 1
  %5 = alloca i32, align 4
  %6 = alloca %"class.std::allocator", align 1
  %7 = alloca i32, align 4
  %8 = alloca %"class.std::allocator", align 1
  %9 = alloca i32, align 4
  %10 = alloca %"class.std::allocator", align 1
  %11 = alloca i32, align 4
  %12 = alloca %"class.std::allocator", align 1
  %13 = alloca i32, align 4
  %14 = alloca %"class.std::allocator", align 1
  %15 = alloca i32, align 4
  %16 = alloca %"class.std::allocator", align 1
  %17 = alloca i32, align 4
  %18 = alloca %"class.std::allocator", align 1
  %19 = alloca i32, align 4
  %20 = alloca %"class.std::allocator", align 1
  %21 = alloca i32, align 4
  %22 = alloca %"class.std::allocator", align 1
  %23 = alloca i32, align 4
  %24 = alloca %"class.std::allocator", align 1
  %25 = alloca i32, align 4
  %26 = alloca %"class.std::allocator", align 1
  %27 = alloca i32, align 4
  %28 = alloca %"class.std::allocator", align 1
  %29 = alloca i32, align 4
  %30 = alloca %"class.std::allocator", align 1
  %31 = alloca i32, align 4
  %32 = alloca %"class.std::allocator", align 1
  %33 = alloca i32, align 4
  %34 = alloca %"class.std::allocator", align 1
  %35 = alloca i32, align 4
  %36 = alloca %"class.std::allocator", align 1
  %37 = alloca i32, align 4
  %38 = alloca %"class.std::allocator", align 1
  %39 = alloca i32, align 4
  %40 = alloca %"class.std::allocator", align 1
  %41 = alloca i32, align 4
  %42 = alloca %"class.std::allocator", align 1
  %43 = alloca i32, align 4
  %44 = alloca %"class.std::allocator", align 1
  %45 = alloca i32, align 4
  %46 = alloca %"class.std::allocator", align 1
  %47 = alloca i32, align 4
  %48 = alloca %"class.std::allocator", align 1
  %49 = alloca i32, align 4
  %50 = alloca %"class.std::allocator", align 1
  %51 = alloca i32, align 4
  %52 = alloca %"class.std::allocator", align 1
  %53 = alloca i32, align 4
  %54 = alloca %"class.std::allocator", align 1
  %55 = alloca i32, align 4
  %56 = alloca %"class.std::allocator", align 1
  %57 = alloca i32, align 4
  %58 = alloca %"class.std::allocator", align 1
  %59 = alloca i32, align 4
  %60 = alloca %"class.std::allocator", align 1
  %61 = alloca i32, align 4
  %62 = alloca %"class.std::allocator", align 1
  %63 = alloca i32, align 4
  %64 = alloca %"class.std::allocator", align 1
  %65 = alloca i32, align 4
  %66 = alloca %"class.std::allocator", align 1
  %67 = alloca i32, align 4
  %68 = alloca %"class.std::allocator", align 1
  %69 = alloca i32, align 4
  %70 = alloca %"class.std::allocator", align 1
  %71 = alloca i32, align 4
  %72 = alloca %"class.std::allocator", align 1
  %73 = alloca i32, align 4
  %74 = alloca %"class.std::allocator", align 1
  %75 = alloca i32, align 4
  %76 = alloca %"class.std::allocator", align 1
  %77 = alloca i32, align 4
  %78 = alloca %"class.std::allocator", align 1
  %79 = alloca i32, align 4
  %80 = alloca %"class.std::allocator", align 1
  %81 = alloca i32, align 4
  %82 = alloca %"class.std::allocator", align 1
  %83 = alloca i32, align 4
  %84 = alloca %"class.std::allocator", align 1
  %85 = alloca i32, align 4
  %86 = alloca %"class.std::allocator", align 1
  %87 = alloca i32, align 4
  %88 = alloca %"class.std::allocator", align 1
  %89 = alloca i32, align 4
  %90 = alloca %"class.std::allocator", align 1
  %91 = alloca i32, align 4
  %92 = alloca %"class.std::allocator", align 1
  %93 = alloca i32, align 4
  %94 = alloca %"class.std::allocator", align 1
  %95 = alloca i32, align 4
  %96 = alloca %"class.std::allocator", align 1
  %97 = alloca i32, align 4
  %98 = alloca %"class.std::allocator", align 1
  %99 = alloca i32, align 4
  %100 = alloca %"class.std::allocator", align 1
  %101 = alloca i32, align 4
  %102 = alloca %"class.std::allocator", align 1
  %103 = alloca i32, align 4
  %104 = alloca %"class.std::allocator", align 1
  %105 = alloca i32, align 4
  %106 = alloca %"class.std::allocator", align 1
  %107 = alloca i32, align 4
  %108 = alloca %"class.std::allocator", align 1
  %109 = alloca i32, align 4
  %110 = alloca %"class.std::allocator", align 1
  %111 = alloca i32, align 4
  %112 = alloca %"class.std::allocator", align 1
  %113 = alloca i32, align 4
  %114 = alloca %"class.std::allocator", align 1
  %115 = alloca i32, align 4
  %116 = alloca %"class.std::allocator", align 1
  %117 = alloca i32, align 4
  %118 = alloca %"class.std::allocator", align 1
  %119 = alloca i32, align 4
  %120 = alloca %"class.std::allocator", align 1
  %121 = alloca i32, align 4
  %122 = alloca %"class.std::allocator", align 1
  %123 = alloca i32, align 4
  %124 = alloca %"class.std::allocator", align 1
  %125 = alloca i32, align 4
  %126 = alloca %"class.std::allocator", align 1
  %127 = alloca i32, align 4
  %128 = alloca %"class.std::allocator", align 1
  %129 = alloca i32, align 4
  %130 = alloca %"class.std::allocator", align 1
  %131 = alloca i32, align 4
  %132 = alloca %"class.std::allocator", align 1
  %133 = alloca i32, align 4
  %134 = alloca %"class.std::allocator", align 1
  %135 = alloca i32, align 4
  %136 = alloca %"class.std::allocator", align 1
  %137 = alloca i32, align 4
  %138 = alloca %"class.std::allocator", align 1
  %139 = alloca i32, align 4
  %140 = alloca %"class.std::allocator", align 1
  %141 = alloca i32, align 4
  %142 = alloca %"class.std::allocator", align 1
  %143 = alloca i32, align 4
  %144 = alloca %"class.std::allocator", align 1
  %145 = alloca i32, align 4
  %146 = alloca %"class.std::allocator", align 1
  %147 = alloca i32, align 4
  %148 = alloca %"class.std::allocator", align 1
  %149 = alloca i32, align 4
  %150 = alloca %"class.std::allocator", align 1
  %151 = alloca i32, align 4
  %152 = alloca %"class.std::allocator", align 1
  %153 = alloca i32, align 4
  %154 = alloca %"class.std::allocator", align 1
  %155 = alloca i32, align 4
  %156 = alloca %"class.std::allocator", align 1
  %157 = alloca i32, align 4
  %158 = alloca %"class.std::allocator", align 1
  %159 = alloca i32, align 4
  %160 = alloca %"class.std::allocator", align 1
  %161 = alloca i32, align 4
  %162 = alloca %"class.std::allocator", align 1
  %163 = alloca i32, align 4
  %164 = alloca %"class.std::allocator", align 1
  %165 = alloca i32, align 4
  %166 = alloca %"class.std::allocator", align 1
  %167 = alloca i32, align 4
  %168 = alloca %"class.std::allocator", align 1
  %169 = alloca i32, align 4
  %170 = alloca %"class.std::allocator", align 1
  %171 = alloca i32, align 4
  %172 = alloca %"class.std::allocator", align 1
  %173 = alloca i32, align 4
  %174 = alloca %"class.std::allocator", align 1
  %175 = alloca i32, align 4
  %176 = alloca %"class.std::allocator", align 1
  %177 = alloca i32, align 4
  %178 = alloca %"class.std::allocator", align 1
  %179 = alloca i32, align 4
  %180 = alloca %"class.std::allocator", align 1
  %181 = alloca i32, align 4
  %182 = alloca %"class.std::allocator", align 1
  %183 = alloca i32, align 4
  %184 = alloca %"class.std::allocator", align 1
  %185 = alloca i32, align 4
  %186 = alloca %"class.std::allocator", align 1
  %187 = alloca i32, align 4
  %188 = alloca %"class.std::allocator", align 1
  %189 = alloca i32, align 4
  %190 = alloca %"class.std::allocator", align 1
  %191 = alloca i32, align 4
  %192 = alloca %"class.std::allocator", align 1
  %193 = alloca i32, align 4
  %194 = alloca %"class.std::allocator", align 1
  %195 = alloca i32, align 4
  %196 = alloca %"class.std::allocator", align 1
  %197 = alloca i32, align 4
  %198 = alloca %"class.std::allocator", align 1
  %199 = alloca i32, align 4
  %200 = alloca %"class.std::allocator", align 1
  %201 = alloca i32, align 4
  %202 = alloca %"class.std::allocator", align 1
  %203 = alloca i32, align 4
  %204 = alloca %"class.std::allocator", align 1
  %205 = alloca i32, align 4
  %206 = alloca %"class.std::allocator", align 1
  %207 = alloca i32, align 4
  %208 = alloca %"class.std::allocator", align 1
  %209 = alloca i32, align 4
  %210 = alloca %"class.std::allocator", align 1
  %211 = alloca i32, align 4
  %212 = alloca %"class.std::allocator", align 1
  %213 = alloca i32, align 4
  %214 = alloca %"class.std::allocator", align 1
  %215 = alloca i32, align 4
  %216 = alloca %"class.std::allocator", align 1
  %217 = alloca i32, align 4
  %218 = alloca %"class.std::allocator", align 1
  %219 = alloca i32, align 4
  %220 = alloca %"class.std::allocator", align 1
  %A = alloca %struct.HPC_Sparse_Matrix_STRUCT*, align 4
  %x = alloca double*, align 4
  %b = alloca double*, align 4
  %xexact = alloca double*, align 4
  %times = alloca [7 x double], align 8
  %niters = alloca i32, align 4
  %normr = alloca double, align 8
  %doc = alloca %class.YAML_Doc, align 4
  %221 = alloca %"class.std::basic_string", align 4
  %222 = alloca %"class.std::allocator", align 1
  %223 = alloca %"class.std::basic_string", align 4
  %224 = alloca %"class.std::allocator", align 1
  %225 = alloca %"class.std::basic_string", align 4
  %226 = alloca %"class.std::allocator", align 1
  %227 = alloca %"class.std::basic_string", align 4
  %228 = alloca %"class.std::allocator", align 1
  %229 = alloca %"class.std::basic_string", align 4
  %230 = alloca %"class.std::allocator", align 1
  %231 = alloca %"class.std::basic_string", align 4
  %232 = alloca %"class.std::allocator", align 1
  %233 = alloca %"class.std::basic_string", align 4
  %234 = alloca %"class.std::allocator", align 1
  %235 = alloca %"class.std::basic_string", align 4
  %236 = alloca %"class.std::allocator", align 1
  %237 = alloca %"class.std::basic_string", align 4
  %238 = alloca %"class.std::allocator", align 1
  %239 = alloca %"class.std::basic_string", align 4
  %240 = alloca %"class.std::allocator", align 1
  %241 = alloca %"class.std::basic_string", align 4
  %242 = alloca %"class.std::allocator", align 1
  %243 = alloca %"class.std::basic_string", align 4
  %244 = alloca %"class.std::allocator", align 1
  %245 = alloca %"class.std::basic_string", align 4
  %246 = alloca %"class.std::allocator", align 1
  %247 = alloca %"class.std::basic_string", align 4
  %248 = alloca %"class.std::allocator", align 1
  %249 = alloca %"class.std::basic_string", align 4
  %250 = alloca %"class.std::allocator", align 1
  %251 = alloca %"class.std::basic_string", align 4
  %252 = alloca %"class.std::allocator", align 1
  %253 = alloca %"class.std::basic_string", align 4
  %254 = alloca %"class.std::allocator", align 1
  %255 = alloca %"class.std::basic_string", align 4
  %256 = alloca %"class.std::allocator", align 1
  %257 = alloca %"class.std::basic_string", align 4
  %258 = alloca %"class.std::allocator", align 1
  %259 = alloca %"class.std::basic_string", align 4
  %260 = alloca %"class.std::allocator", align 1
  %261 = alloca %"class.std::basic_string", align 4
  %262 = alloca %"class.std::allocator", align 1
  %263 = alloca %"class.std::basic_string", align 4
  %264 = alloca %"class.std::allocator", align 1
  %265 = alloca %"class.std::basic_string", align 4
  %266 = alloca %"class.std::allocator", align 1
  %267 = alloca %"class.std::basic_string", align 4
  %268 = alloca %"class.std::allocator", align 1
  %269 = alloca %"class.std::basic_string", align 4
  %270 = alloca %"class.std::allocator", align 1
  %271 = alloca %"class.std::basic_string", align 4
  %272 = alloca %"class.std::allocator", align 1
  %273 = alloca %"class.std::basic_string", align 4
  %274 = alloca %"class.std::allocator", align 1
  %275 = alloca %"class.std::basic_string", align 4
  %276 = alloca %"class.std::allocator", align 1
  %277 = alloca %"class.std::basic_string", align 4
  %278 = alloca %"class.std::allocator", align 1
  %279 = alloca %"class.std::basic_string", align 4
  %280 = alloca %"class.std::allocator", align 1
  %281 = alloca %"class.std::basic_string", align 4
  %282 = alloca %"class.std::allocator", align 1
  %283 = alloca %"class.std::basic_string", align 4
  %284 = alloca %"class.std::allocator", align 1
  %285 = alloca %"class.std::basic_string", align 4
  %286 = alloca %"class.std::allocator", align 1
  %287 = alloca %"class.std::basic_string", align 4
  %288 = alloca %"class.std::allocator", align 1
  %289 = alloca %"class.std::basic_string", align 4
  %290 = alloca %"class.std::allocator", align 1
  %291 = alloca %"class.std::basic_string", align 4
  %292 = alloca %"class.std::allocator", align 1
  %293 = alloca %"class.std::basic_string", align 4
  %294 = alloca %"class.std::allocator", align 1
  %295 = alloca %"class.std::basic_string", align 4
  %296 = alloca %"class.std::allocator", align 1
  %297 = alloca %"class.std::basic_string", align 4
  %298 = alloca %"class.std::allocator", align 1
  %299 = alloca %"class.std::basic_string", align 4
  %300 = alloca %"class.std::allocator", align 1
  %301 = alloca %"class.std::basic_string", align 4
  %302 = alloca %"class.std::allocator", align 1
  %303 = alloca %"class.std::basic_string", align 4
  %304 = alloca %"class.std::allocator", align 1
  %305 = alloca %"class.std::basic_string", align 4
  %306 = alloca %"class.std::allocator", align 1
  %307 = alloca %"class.std::basic_string", align 4
  %308 = alloca %"class.std::allocator", align 1
  %309 = alloca %"class.std::basic_string", align 4
  %310 = alloca %"class.std::allocator", align 1
  %311 = alloca %"class.std::basic_string", align 4
  %312 = alloca %"class.std::allocator", align 1
  %313 = alloca %"class.std::basic_string", align 4
  %314 = alloca %"class.std::allocator", align 1
  %315 = alloca %"class.std::basic_string", align 4
  %316 = alloca %"class.std::allocator", align 1
  %317 = alloca %"class.std::basic_string", align 4
  %318 = alloca %"class.std::allocator", align 1
  %319 = alloca %"class.std::basic_string", align 4
  %320 = alloca %"class.std::allocator", align 1
  %321 = alloca %"class.std::basic_string", align 4
  %322 = alloca %"class.std::allocator", align 1
  %323 = alloca %"class.std::basic_string", align 4
  %324 = alloca %"class.std::allocator", align 1
  %325 = alloca %"class.std::basic_string", align 4
  %326 = alloca %"class.std::allocator", align 1
  %327 = alloca %"class.std::basic_string", align 4
  %328 = alloca %"class.std::allocator", align 1
  %yaml = alloca %"class.std::basic_string", align 4
  %329 = bitcast [7 x double]* %times to i8*
  call void @llvm.lifetime.start(i64 56, i8* %329) #1
  switch i32 %argc, label %330 [
    i32 4, label %493
    i32 2, label %493
  ]

; <label>:330                                     ; preds = %0
  %331 = tail call dereferenceable(140) %"class.std::basic_ostream"* @_ZSt16__ostream_insertIcSt11char_traitsIcEERSt13basic_ostreamIT_T0_ES6_PKS3_i(%"class.std::basic_ostream"* dereferenceable(140) @_ZSt4cerr, i8* getelementptr inbounds ([7 x i8]* @.str, i32 0, i32 0), i32 6)
  %reuse.cast = ptrtoint i8** bitcast (%"class.std::basic_ostream"* @_ZSt4cerr to i8**) to i32
  call void @getReuseDistance(i32 %reuse.cast)
  %332 = load i8** bitcast (%"class.std::basic_ostream"* @_ZSt4cerr to i8**), align 4, !tbaa !1
  %333 = getelementptr i8* %332, i32 -12
  %334 = bitcast i8* %333 to i32*
  %reuse.cast1 = ptrtoint i32* %334 to i32
  call void @getReuseDistance(i32 %reuse.cast1)
  %335 = load i32* %334, align 4
  %.sum426 = add i32 %335, 124
  %336 = getelementptr inbounds i8* bitcast (%"class.std::basic_ostream"* @_ZSt4cerr to i8*), i32 %.sum426
  %337 = bitcast i8* %336 to %"class.std::ctype"**
  %reuse.cast2 = ptrtoint %"class.std::ctype"** %337 to i32
  call void @getReuseDistance(i32 %reuse.cast2)
  %338 = load %"class.std::ctype"** %337, align 4, !tbaa !4
  %339 = icmp eq %"class.std::ctype"* %338, null
  br i1 %339, label %340, label %_ZSt13__check_facetISt5ctypeIcEERKT_PS3_.exit149

; <label>:340                                     ; preds = %330
  tail call void @_ZSt16__throw_bad_castv() #11
  unreachable

_ZSt13__check_facetISt5ctypeIcEERKT_PS3_.exit149: ; preds = %330
  %341 = getelementptr inbounds %"class.std::ctype"* %338, i32 0, i32 6
  %reuse.cast3 = ptrtoint i8* %341 to i32
  call void @getReuseDistance(i32 %reuse.cast3)
  %342 = load i8* %341, align 1, !tbaa !9
  %343 = icmp eq i8 %342, 0
  br i1 %343, label %347, label %344

; <label>:344                                     ; preds = %_ZSt13__check_facetISt5ctypeIcEERKT_PS3_.exit149
  %345 = getelementptr inbounds %"class.std::ctype"* %338, i32 0, i32 7, i32 10
  %reuse.cast4 = ptrtoint i8* %345 to i32
  call void @getReuseDistance(i32 %reuse.cast4)
  %346 = load i8* %345, align 1, !tbaa !11
  br label %_ZNKSt5ctypeIcE5widenEc.exit142

; <label>:347                                     ; preds = %_ZSt13__check_facetISt5ctypeIcEERKT_PS3_.exit149
  tail call void @_ZNKSt5ctypeIcE13_M_widen_initEv(%"class.std::ctype"* %338)
  %348 = bitcast %"class.std::ctype"* %338 to i8 (%"class.std::ctype"*, i8)***
  %reuse.cast5 = ptrtoint i8 (%"class.std::ctype"*, i8)*** %348 to i32
  call void @getReuseDistance(i32 %reuse.cast5)
  %349 = load i8 (%"class.std::ctype"*, i8)*** %348, align 4, !tbaa !1
  %350 = getelementptr inbounds i8 (%"class.std::ctype"*, i8)** %349, i32 6
  %reuse.cast6 = ptrtoint i8 (%"class.std::ctype"*, i8)** %350 to i32
  call void @getReuseDistance(i32 %reuse.cast6)
  %351 = load i8 (%"class.std::ctype"*, i8)** %350, align 4
  %352 = tail call signext i8 %351(%"class.std::ctype"* %338, i8 signext 10)
  br label %_ZNKSt5ctypeIcE5widenEc.exit142

_ZNKSt5ctypeIcE5widenEc.exit142:                  ; preds = %347, %344
  %.0.i141 = phi i8 [ %346, %344 ], [ %352, %347 ]
  %353 = tail call dereferenceable(140) %"class.std::basic_ostream"* @_ZNSo3putEc(%"class.std::basic_ostream"* @_ZSt4cerr, i8 signext %.0.i141)
  %354 = tail call dereferenceable(140) %"class.std::basic_ostream"* @_ZNSo5flushEv(%"class.std::basic_ostream"* %353)
  %355 = tail call dereferenceable(140) %"class.std::basic_ostream"* @_ZSt16__ostream_insertIcSt11char_traitsIcEERSt13basic_ostreamIT_T0_ES6_PKS3_i(%"class.std::basic_ostream"* dereferenceable(140) %354, i8* getelementptr inbounds ([9 x i8]* @.str1, i32 0, i32 0), i32 8)
  %reuse.cast7 = ptrtoint i8** %argv to i32
  call void @getReuseDistance(i32 %reuse.cast7)
  %356 = load i8** %argv, align 4, !tbaa !12
  %357 = icmp eq i8* %356, null
  br i1 %357, label %358, label %371

; <label>:358                                     ; preds = %_ZNKSt5ctypeIcE5widenEc.exit142
  %359 = bitcast %"class.std::basic_ostream"* %354 to i8**
  %reuse.cast8 = ptrtoint i8** %359 to i32
  call void @getReuseDistance(i32 %reuse.cast8)
  %360 = load i8** %359, align 4, !tbaa !1
  %361 = getelementptr i8* %360, i32 -12
  %362 = bitcast i8* %361 to i32*
  %reuse.cast9 = ptrtoint i32* %362 to i32
  call void @getReuseDistance(i32 %reuse.cast9)
  %363 = load i32* %362, align 4
  %364 = bitcast %"class.std::basic_ostream"* %354 to i8*
  %365 = getelementptr inbounds i8* %364, i32 %363
  %366 = bitcast i8* %365 to %"class.std::basic_ios"*
  %.sum.i = add i32 %363, 20
  %367 = getelementptr inbounds i8* %364, i32 %.sum.i
  %368 = bitcast i8* %367 to i32*
  %reuse.cast10 = ptrtoint i32* %368 to i32
  call void @getReuseDistance(i32 %reuse.cast10)
  %369 = load i32* %368, align 4, !tbaa !13
  %370 = or i32 %369, 1
  tail call void @_ZNSt9basic_iosIcSt11char_traitsIcEE5clearESt12_Ios_Iostate(%"class.std::basic_ios"* %366, i32 %370)
  br label %_ZStlsISt11char_traitsIcEERSt13basic_ostreamIcT_ES5_PKc.exit

; <label>:371                                     ; preds = %_ZNKSt5ctypeIcE5widenEc.exit142
  %372 = tail call i32 @strlen(i8* %356) #1
  %373 = tail call dereferenceable(140) %"class.std::basic_ostream"* @_ZSt16__ostream_insertIcSt11char_traitsIcEERSt13basic_ostreamIT_T0_ES6_PKS3_i(%"class.std::basic_ostream"* dereferenceable(140) %354, i8* %356, i32 %372)
  %.pre = bitcast %"class.std::basic_ostream"* %354 to i8**
  %.pre431 = bitcast %"class.std::basic_ostream"* %354 to i8*
  br label %_ZStlsISt11char_traitsIcEERSt13basic_ostreamIcT_ES5_PKc.exit

_ZStlsISt11char_traitsIcEERSt13basic_ostreamIcT_ES5_PKc.exit: ; preds = %371, %358
  %.pre-phi432 = phi i8* [ %364, %358 ], [ %.pre431, %371 ]
  %.pre-phi = phi i8** [ %359, %358 ], [ %.pre, %371 ]
  %374 = tail call dereferenceable(140) %"class.std::basic_ostream"* @_ZSt16__ostream_insertIcSt11char_traitsIcEERSt13basic_ostreamIT_T0_ES6_PKS3_i(%"class.std::basic_ostream"* dereferenceable(140) %354, i8* getelementptr inbounds ([10 x i8]* @.str2, i32 0, i32 0), i32 9)
  %reuse.cast11 = ptrtoint i8** %.pre-phi to i32
  call void @getReuseDistance(i32 %reuse.cast11)
  %375 = load i8** %.pre-phi, align 4, !tbaa !1
  %376 = getelementptr i8* %375, i32 -12
  %377 = bitcast i8* %376 to i32*
  %reuse.cast12 = ptrtoint i32* %377 to i32
  call void @getReuseDistance(i32 %reuse.cast12)
  %378 = load i32* %377, align 4
  %.sum427 = add i32 %378, 124
  %379 = getelementptr inbounds i8* %.pre-phi432, i32 %.sum427
  %380 = bitcast i8* %379 to %"class.std::ctype"**
  %reuse.cast13 = ptrtoint %"class.std::ctype"** %380 to i32
  call void @getReuseDistance(i32 %reuse.cast13)
  %381 = load %"class.std::ctype"** %380, align 4, !tbaa !4
  %382 = icmp eq %"class.std::ctype"* %381, null
  br i1 %382, label %383, label %_ZSt13__check_facetISt5ctypeIcEERKT_PS3_.exit134

; <label>:383                                     ; preds = %_ZStlsISt11char_traitsIcEERSt13basic_ostreamIcT_ES5_PKc.exit
  tail call void @_ZSt16__throw_bad_castv() #11
  unreachable

_ZSt13__check_facetISt5ctypeIcEERKT_PS3_.exit134: ; preds = %_ZStlsISt11char_traitsIcEERSt13basic_ostreamIcT_ES5_PKc.exit
  %384 = getelementptr inbounds %"class.std::ctype"* %381, i32 0, i32 6
  %reuse.cast14 = ptrtoint i8* %384 to i32
  call void @getReuseDistance(i32 %reuse.cast14)
  %385 = load i8* %384, align 1, !tbaa !9
  %386 = icmp eq i8 %385, 0
  br i1 %386, label %390, label %387

; <label>:387                                     ; preds = %_ZSt13__check_facetISt5ctypeIcEERKT_PS3_.exit134
  %388 = getelementptr inbounds %"class.std::ctype"* %381, i32 0, i32 7, i32 10
  %reuse.cast15 = ptrtoint i8* %388 to i32
  call void @getReuseDistance(i32 %reuse.cast15)
  %389 = load i8* %388, align 1, !tbaa !11
  br label %_ZNKSt5ctypeIcE5widenEc.exit127

; <label>:390                                     ; preds = %_ZSt13__check_facetISt5ctypeIcEERKT_PS3_.exit134
  tail call void @_ZNKSt5ctypeIcE13_M_widen_initEv(%"class.std::ctype"* %381)
  %391 = bitcast %"class.std::ctype"* %381 to i8 (%"class.std::ctype"*, i8)***
  %reuse.cast16 = ptrtoint i8 (%"class.std::ctype"*, i8)*** %391 to i32
  call void @getReuseDistance(i32 %reuse.cast16)
  %392 = load i8 (%"class.std::ctype"*, i8)*** %391, align 4, !tbaa !1
  %393 = getelementptr inbounds i8 (%"class.std::ctype"*, i8)** %392, i32 6
  %reuse.cast17 = ptrtoint i8 (%"class.std::ctype"*, i8)** %393 to i32
  call void @getReuseDistance(i32 %reuse.cast17)
  %394 = load i8 (%"class.std::ctype"*, i8)** %393, align 4
  %395 = tail call signext i8 %394(%"class.std::ctype"* %381, i8 signext 10)
  br label %_ZNKSt5ctypeIcE5widenEc.exit127

_ZNKSt5ctypeIcE5widenEc.exit127:                  ; preds = %390, %387
  %.0.i126 = phi i8 [ %389, %387 ], [ %395, %390 ]
  %396 = tail call dereferenceable(140) %"class.std::basic_ostream"* @_ZNSo3putEc(%"class.std::basic_ostream"* %354, i8 signext %.0.i126)
  %397 = tail call dereferenceable(140) %"class.std::basic_ostream"* @_ZNSo5flushEv(%"class.std::basic_ostream"* %396)
  %398 = tail call dereferenceable(140) %"class.std::basic_ostream"* @_ZSt16__ostream_insertIcSt11char_traitsIcEERSt13basic_ostreamIT_T0_ES6_PKS3_i(%"class.std::basic_ostream"* dereferenceable(140) %397, i8* getelementptr inbounds ([64 x i8]* @.str3, i32 0, i32 0), i32 63)
  %399 = bitcast %"class.std::basic_ostream"* %397 to i8**
  %reuse.cast18 = ptrtoint i8** %399 to i32
  call void @getReuseDistance(i32 %reuse.cast18)
  %400 = load i8** %399, align 4, !tbaa !1
  %401 = getelementptr i8* %400, i32 -12
  %402 = bitcast i8* %401 to i32*
  %reuse.cast19 = ptrtoint i32* %402 to i32
  call void @getReuseDistance(i32 %reuse.cast19)
  %403 = load i32* %402, align 4
  %404 = bitcast %"class.std::basic_ostream"* %397 to i8*
  %.sum428 = add i32 %403, 124
  %405 = getelementptr inbounds i8* %404, i32 %.sum428
  %406 = bitcast i8* %405 to %"class.std::ctype"**
  %reuse.cast20 = ptrtoint %"class.std::ctype"** %406 to i32
  call void @getReuseDistance(i32 %reuse.cast20)
  %407 = load %"class.std::ctype"** %406, align 4, !tbaa !4
  %408 = icmp eq %"class.std::ctype"* %407, null
  br i1 %408, label %409, label %_ZSt13__check_facetISt5ctypeIcEERKT_PS3_.exit122

; <label>:409                                     ; preds = %_ZNKSt5ctypeIcE5widenEc.exit127
  tail call void @_ZSt16__throw_bad_castv() #11
  unreachable

_ZSt13__check_facetISt5ctypeIcEERKT_PS3_.exit122: ; preds = %_ZNKSt5ctypeIcE5widenEc.exit127
  %410 = getelementptr inbounds %"class.std::ctype"* %407, i32 0, i32 6
  %reuse.cast21 = ptrtoint i8* %410 to i32
  call void @getReuseDistance(i32 %reuse.cast21)
  %411 = load i8* %410, align 1, !tbaa !9
  %412 = icmp eq i8 %411, 0
  br i1 %412, label %416, label %413

; <label>:413                                     ; preds = %_ZSt13__check_facetISt5ctypeIcEERKT_PS3_.exit122
  %414 = getelementptr inbounds %"class.std::ctype"* %407, i32 0, i32 7, i32 10
  %reuse.cast22 = ptrtoint i8* %414 to i32
  call void @getReuseDistance(i32 %reuse.cast22)
  %415 = load i8* %414, align 1, !tbaa !11
  br label %_ZNKSt5ctypeIcE5widenEc.exit115

; <label>:416                                     ; preds = %_ZSt13__check_facetISt5ctypeIcEERKT_PS3_.exit122
  tail call void @_ZNKSt5ctypeIcE13_M_widen_initEv(%"class.std::ctype"* %407)
  %417 = bitcast %"class.std::ctype"* %407 to i8 (%"class.std::ctype"*, i8)***
  %reuse.cast23 = ptrtoint i8 (%"class.std::ctype"*, i8)*** %417 to i32
  call void @getReuseDistance(i32 %reuse.cast23)
  %418 = load i8 (%"class.std::ctype"*, i8)*** %417, align 4, !tbaa !1
  %419 = getelementptr inbounds i8 (%"class.std::ctype"*, i8)** %418, i32 6
  %reuse.cast24 = ptrtoint i8 (%"class.std::ctype"*, i8)** %419 to i32
  call void @getReuseDistance(i32 %reuse.cast24)
  %420 = load i8 (%"class.std::ctype"*, i8)** %419, align 4
  %421 = tail call signext i8 %420(%"class.std::ctype"* %407, i8 signext 10)
  br label %_ZNKSt5ctypeIcE5widenEc.exit115

_ZNKSt5ctypeIcE5widenEc.exit115:                  ; preds = %416, %413
  %.0.i114 = phi i8 [ %415, %413 ], [ %421, %416 ]
  %422 = tail call dereferenceable(140) %"class.std::basic_ostream"* @_ZNSo3putEc(%"class.std::basic_ostream"* %397, i8 signext %.0.i114)
  %423 = tail call dereferenceable(140) %"class.std::basic_ostream"* @_ZNSo5flushEv(%"class.std::basic_ostream"* %422)
  %424 = tail call dereferenceable(140) %"class.std::basic_ostream"* @_ZSt16__ostream_insertIcSt11char_traitsIcEERSt13basic_ostreamIT_T0_ES6_PKS3_i(%"class.std::basic_ostream"* dereferenceable(140) %423, i8* getelementptr inbounds ([9 x i8]* @.str4, i32 0, i32 0), i32 8)
  %reuse.cast25 = ptrtoint i8** %argv to i32
  call void @getReuseDistance(i32 %reuse.cast25)
  %425 = load i8** %argv, align 4, !tbaa !12
  %426 = icmp eq i8* %425, null
  br i1 %426, label %427, label %440

; <label>:427                                     ; preds = %_ZNKSt5ctypeIcE5widenEc.exit115
  %428 = bitcast %"class.std::basic_ostream"* %423 to i8**
  %reuse.cast26 = ptrtoint i8** %428 to i32
  call void @getReuseDistance(i32 %reuse.cast26)
  %429 = load i8** %428, align 4, !tbaa !1
  %430 = getelementptr i8* %429, i32 -12
  %431 = bitcast i8* %430 to i32*
  %reuse.cast27 = ptrtoint i32* %431 to i32
  call void @getReuseDistance(i32 %reuse.cast27)
  %432 = load i32* %431, align 4
  %433 = bitcast %"class.std::basic_ostream"* %423 to i8*
  %434 = getelementptr inbounds i8* %433, i32 %432
  %435 = bitcast i8* %434 to %"class.std::basic_ios"*
  %.sum.i82 = add i32 %432, 20
  %436 = getelementptr inbounds i8* %433, i32 %.sum.i82
  %437 = bitcast i8* %436 to i32*
  %reuse.cast28 = ptrtoint i32* %437 to i32
  call void @getReuseDistance(i32 %reuse.cast28)
  %438 = load i32* %437, align 4, !tbaa !13
  %439 = or i32 %438, 1
  tail call void @_ZNSt9basic_iosIcSt11char_traitsIcEE5clearESt12_Ios_Iostate(%"class.std::basic_ios"* %435, i32 %439)
  br label %_ZStlsISt11char_traitsIcEERSt13basic_ostreamIcT_ES5_PKc.exit83

; <label>:440                                     ; preds = %_ZNKSt5ctypeIcE5widenEc.exit115
  %441 = tail call i32 @strlen(i8* %425) #1
  %442 = tail call dereferenceable(140) %"class.std::basic_ostream"* @_ZSt16__ostream_insertIcSt11char_traitsIcEERSt13basic_ostreamIT_T0_ES6_PKS3_i(%"class.std::basic_ostream"* dereferenceable(140) %423, i8* %425, i32 %441)
  %.pre433 = bitcast %"class.std::basic_ostream"* %423 to i8**
  %.pre435 = bitcast %"class.std::basic_ostream"* %423 to i8*
  br label %_ZStlsISt11char_traitsIcEERSt13basic_ostreamIcT_ES5_PKc.exit83

_ZStlsISt11char_traitsIcEERSt13basic_ostreamIcT_ES5_PKc.exit83: ; preds = %440, %427
  %.pre-phi436 = phi i8* [ %433, %427 ], [ %.pre435, %440 ]
  %.pre-phi434 = phi i8** [ %428, %427 ], [ %.pre433, %440 ]
  %443 = tail call dereferenceable(140) %"class.std::basic_ostream"* @_ZSt16__ostream_insertIcSt11char_traitsIcEERSt13basic_ostreamIT_T0_ES6_PKS3_i(%"class.std::basic_ostream"* dereferenceable(140) %423, i8* getelementptr inbounds ([16 x i8]* @.str5, i32 0, i32 0), i32 15)
  %reuse.cast29 = ptrtoint i8** %.pre-phi434 to i32
  call void @getReuseDistance(i32 %reuse.cast29)
  %444 = load i8** %.pre-phi434, align 4, !tbaa !1
  %445 = getelementptr i8* %444, i32 -12
  %446 = bitcast i8* %445 to i32*
  %reuse.cast30 = ptrtoint i32* %446 to i32
  call void @getReuseDistance(i32 %reuse.cast30)
  %447 = load i32* %446, align 4
  %.sum429 = add i32 %447, 124
  %448 = getelementptr inbounds i8* %.pre-phi436, i32 %.sum429
  %449 = bitcast i8* %448 to %"class.std::ctype"**
  %reuse.cast31 = ptrtoint %"class.std::ctype"** %449 to i32
  call void @getReuseDistance(i32 %reuse.cast31)
  %450 = load %"class.std::ctype"** %449, align 4, !tbaa !4
  %451 = icmp eq %"class.std::ctype"* %450, null
  br i1 %451, label %452, label %_ZSt13__check_facetISt5ctypeIcEERKT_PS3_.exit104

; <label>:452                                     ; preds = %_ZStlsISt11char_traitsIcEERSt13basic_ostreamIcT_ES5_PKc.exit83
  tail call void @_ZSt16__throw_bad_castv() #11
  unreachable

_ZSt13__check_facetISt5ctypeIcEERKT_PS3_.exit104: ; preds = %_ZStlsISt11char_traitsIcEERSt13basic_ostreamIcT_ES5_PKc.exit83
  %453 = getelementptr inbounds %"class.std::ctype"* %450, i32 0, i32 6
  %reuse.cast32 = ptrtoint i8* %453 to i32
  call void @getReuseDistance(i32 %reuse.cast32)
  %454 = load i8* %453, align 1, !tbaa !9
  %455 = icmp eq i8 %454, 0
  br i1 %455, label %459, label %456

; <label>:456                                     ; preds = %_ZSt13__check_facetISt5ctypeIcEERKT_PS3_.exit104
  %457 = getelementptr inbounds %"class.std::ctype"* %450, i32 0, i32 7, i32 10
  %reuse.cast33 = ptrtoint i8* %457 to i32
  call void @getReuseDistance(i32 %reuse.cast33)
  %458 = load i8* %457, align 1, !tbaa !11
  br label %_ZNKSt5ctypeIcE5widenEc.exit103

; <label>:459                                     ; preds = %_ZSt13__check_facetISt5ctypeIcEERKT_PS3_.exit104
  tail call void @_ZNKSt5ctypeIcE13_M_widen_initEv(%"class.std::ctype"* %450)
  %460 = bitcast %"class.std::ctype"* %450 to i8 (%"class.std::ctype"*, i8)***
  %reuse.cast34 = ptrtoint i8 (%"class.std::ctype"*, i8)*** %460 to i32
  call void @getReuseDistance(i32 %reuse.cast34)
  %461 = load i8 (%"class.std::ctype"*, i8)*** %460, align 4, !tbaa !1
  %462 = getelementptr inbounds i8 (%"class.std::ctype"*, i8)** %461, i32 6
  %reuse.cast35 = ptrtoint i8 (%"class.std::ctype"*, i8)** %462 to i32
  call void @getReuseDistance(i32 %reuse.cast35)
  %463 = load i8 (%"class.std::ctype"*, i8)** %462, align 4
  %464 = tail call signext i8 %463(%"class.std::ctype"* %450, i8 signext 10)
  br label %_ZNKSt5ctypeIcE5widenEc.exit103

_ZNKSt5ctypeIcE5widenEc.exit103:                  ; preds = %459, %456
  %.0.i102 = phi i8 [ %458, %456 ], [ %464, %459 ]
  %465 = tail call dereferenceable(140) %"class.std::basic_ostream"* @_ZNSo3putEc(%"class.std::basic_ostream"* %423, i8 signext %.0.i102)
  %466 = tail call dereferenceable(140) %"class.std::basic_ostream"* @_ZNSo5flushEv(%"class.std::basic_ostream"* %465)
  %467 = tail call dereferenceable(140) %"class.std::basic_ostream"* @_ZSt16__ostream_insertIcSt11char_traitsIcEERSt13basic_ostreamIT_T0_ES6_PKS3_i(%"class.std::basic_ostream"* dereferenceable(140) %466, i8* getelementptr inbounds ([79 x i8]* @.str6, i32 0, i32 0), i32 78)
  %468 = bitcast %"class.std::basic_ostream"* %466 to i8**
  %reuse.cast36 = ptrtoint i8** %468 to i32
  call void @getReuseDistance(i32 %reuse.cast36)
  %469 = load i8** %468, align 4, !tbaa !1
  %470 = getelementptr i8* %469, i32 -12
  %471 = bitcast i8* %470 to i32*
  %reuse.cast37 = ptrtoint i32* %471 to i32
  call void @getReuseDistance(i32 %reuse.cast37)
  %472 = load i32* %471, align 4
  %473 = bitcast %"class.std::basic_ostream"* %466 to i8*
  %.sum430 = add i32 %472, 124
  %474 = getelementptr inbounds i8* %473, i32 %.sum430
  %475 = bitcast i8* %474 to %"class.std::ctype"**
  %reuse.cast38 = ptrtoint %"class.std::ctype"** %475 to i32
  call void @getReuseDistance(i32 %reuse.cast38)
  %476 = load %"class.std::ctype"** %475, align 4, !tbaa !4
  %477 = icmp eq %"class.std::ctype"* %476, null
  br i1 %477, label %478, label %_ZSt13__check_facetISt5ctypeIcEERKT_PS3_.exit95

; <label>:478                                     ; preds = %_ZNKSt5ctypeIcE5widenEc.exit103
  tail call void @_ZSt16__throw_bad_castv() #11
  unreachable

_ZSt13__check_facetISt5ctypeIcEERKT_PS3_.exit95:  ; preds = %_ZNKSt5ctypeIcE5widenEc.exit103
  %479 = getelementptr inbounds %"class.std::ctype"* %476, i32 0, i32 6
  %reuse.cast39 = ptrtoint i8* %479 to i32
  call void @getReuseDistance(i32 %reuse.cast39)
  %480 = load i8* %479, align 1, !tbaa !9
  %481 = icmp eq i8 %480, 0
  br i1 %481, label %485, label %482

; <label>:482                                     ; preds = %_ZSt13__check_facetISt5ctypeIcEERKT_PS3_.exit95
  %483 = getelementptr inbounds %"class.std::ctype"* %476, i32 0, i32 7, i32 10
  %reuse.cast40 = ptrtoint i8* %483 to i32
  call void @getReuseDistance(i32 %reuse.cast40)
  %484 = load i8* %483, align 1, !tbaa !11
  br label %_ZNKSt5ctypeIcE5widenEc.exit94

; <label>:485                                     ; preds = %_ZSt13__check_facetISt5ctypeIcEERKT_PS3_.exit95
  tail call void @_ZNKSt5ctypeIcE13_M_widen_initEv(%"class.std::ctype"* %476)
  %486 = bitcast %"class.std::ctype"* %476 to i8 (%"class.std::ctype"*, i8)***
  %reuse.cast41 = ptrtoint i8 (%"class.std::ctype"*, i8)*** %486 to i32
  call void @getReuseDistance(i32 %reuse.cast41)
  %487 = load i8 (%"class.std::ctype"*, i8)*** %486, align 4, !tbaa !1
  %488 = getelementptr inbounds i8 (%"class.std::ctype"*, i8)** %487, i32 6
  %reuse.cast42 = ptrtoint i8 (%"class.std::ctype"*, i8)** %488 to i32
  call void @getReuseDistance(i32 %reuse.cast42)
  %489 = load i8 (%"class.std::ctype"*, i8)** %488, align 4
  %490 = tail call signext i8 %489(%"class.std::ctype"* %476, i8 signext 10)
  br label %_ZNKSt5ctypeIcE5widenEc.exit94

_ZNKSt5ctypeIcE5widenEc.exit94:                   ; preds = %485, %482
  %.0.i93 = phi i8 [ %484, %482 ], [ %490, %485 ]
  %491 = tail call dereferenceable(140) %"class.std::basic_ostream"* @_ZNSo3putEc(%"class.std::basic_ostream"* %466, i8 signext %.0.i93)
  %492 = tail call dereferenceable(140) %"class.std::basic_ostream"* @_ZNSo5flushEv(%"class.std::basic_ostream"* %491)
  tail call void @exit(i32 1) #12
  unreachable

; <label>:493                                     ; preds = %0, %0
  %494 = icmp eq i32 %argc, 4
  %495 = getelementptr inbounds i8** %argv, i32 1
  %reuse.cast43 = ptrtoint i8** %495 to i32
  call void @getReuseDistance(i32 %reuse.cast43)
  %496 = load i8** %495, align 4, !tbaa !12
  br i1 %494, label %497, label %505

; <label>:497                                     ; preds = %493
  %498 = tail call i32 @strtol(i8* nocapture %496, i8** null, i32 10) #1
  %499 = getelementptr inbounds i8** %argv, i32 2
  %reuse.cast44 = ptrtoint i8** %499 to i32
  call void @getReuseDistance(i32 %reuse.cast44)
  %500 = load i8** %499, align 4, !tbaa !12
  %501 = tail call i32 @strtol(i8* nocapture %500, i8** null, i32 10) #1
  %502 = getelementptr inbounds i8** %argv, i32 3
  %reuse.cast45 = ptrtoint i8** %502 to i32
  call void @getReuseDistance(i32 %reuse.cast45)
  %503 = load i8** %502, align 4, !tbaa !12
  %504 = tail call i32 @strtol(i8* nocapture %503, i8** null, i32 10) #1
  call void @_Z15generate_matrixiiiPP24HPC_Sparse_Matrix_STRUCTPPdS3_S3_(i32 %498, i32 %501, i32 %504, %struct.HPC_Sparse_Matrix_STRUCT** %A, double** %x, double** %b, double** %xexact)
  br label %506

; <label>:505                                     ; preds = %493
  call void @_Z12read_HPC_rowPcPP24HPC_Sparse_Matrix_STRUCTPPdS4_S4_(i8* %496, %struct.HPC_Sparse_Matrix_STRUCT** %A, double** %x, double** %b, double** %xexact)
  br label %506

; <label>:506                                     ; preds = %505, %497
  %nz.0 = phi i32 [ %504, %497 ], [ undef, %505 ]
  %ny.0 = phi i32 [ %501, %497 ], [ undef, %505 ]
  %nx.0 = phi i32 [ %498, %497 ], [ undef, %505 ]
  %507 = call double @_Z7mytimerv()
  %reuse.cast46 = ptrtoint i32* %niters to i32
  call void @getReuseDistance(i32 %reuse.cast46)
  store i32 0, i32* %niters, align 4, !tbaa !21
  %reuse.cast47 = ptrtoint double* %normr to i32
  call void @getReuseDistance(i32 %reuse.cast47)
  store double 0.000000e+00, double* %normr, align 8, !tbaa !22
  %reuse.cast48 = ptrtoint %struct.HPC_Sparse_Matrix_STRUCT** %A to i32
  call void @getReuseDistance(i32 %reuse.cast48)
  %508 = load %struct.HPC_Sparse_Matrix_STRUCT** %A, align 4, !tbaa !12
  %reuse.cast49 = ptrtoint double** %b to i32
  call void @getReuseDistance(i32 %reuse.cast49)
  %509 = load double** %b, align 4, !tbaa !12
  %reuse.cast50 = ptrtoint double** %x to i32
  call void @getReuseDistance(i32 %reuse.cast50)
  %510 = load double** %x, align 4, !tbaa !12
  %511 = getelementptr inbounds [7 x double]* %times, i32 0, i32 0
  %512 = call i32 @_Z5HPCCGP24HPC_Sparse_Matrix_STRUCTPKdPdidRiRdS3_(%struct.HPC_Sparse_Matrix_STRUCT* %508, double* %509, double* %510, i32 150, double 0.000000e+00, i32* dereferenceable(4) %niters, double* dereferenceable(8) %normr, double* %511)
  %513 = icmp eq i32 %512, 0
  br i1 %513, label %543, label %514

; <label>:514                                     ; preds = %506
  %515 = call dereferenceable(140) %"class.std::basic_ostream"* @_ZSt16__ostream_insertIcSt11char_traitsIcEERSt13basic_ostreamIT_T0_ES6_PKS3_i(%"class.std::basic_ostream"* dereferenceable(140) @_ZSt4cerr, i8* getelementptr inbounds ([22 x i8]* @.str7, i32 0, i32 0), i32 21)
  %516 = call dereferenceable(140) %"class.std::basic_ostream"* @_ZNSolsEi(%"class.std::basic_ostream"* @_ZSt4cerr, i32 %512)
  %517 = call dereferenceable(140) %"class.std::basic_ostream"* @_ZSt16__ostream_insertIcSt11char_traitsIcEERSt13basic_ostreamIT_T0_ES6_PKS3_i(%"class.std::basic_ostream"* dereferenceable(140) %516, i8* getelementptr inbounds ([3 x i8]* @.str8, i32 0, i32 0), i32 2)
  %518 = bitcast %"class.std::basic_ostream"* %516 to i8**
  %reuse.cast51 = ptrtoint i8** %518 to i32
  call void @getReuseDistance(i32 %reuse.cast51)
  %519 = load i8** %518, align 4, !tbaa !1
  %520 = getelementptr i8* %519, i32 -12
  %521 = bitcast i8* %520 to i32*
  %reuse.cast52 = ptrtoint i32* %521 to i32
  call void @getReuseDistance(i32 %reuse.cast52)
  %522 = load i32* %521, align 4
  %523 = bitcast %"class.std::basic_ostream"* %516 to i8*
  %.sum = add i32 %522, 124
  %524 = getelementptr inbounds i8* %523, i32 %.sum
  %525 = bitcast i8* %524 to %"class.std::ctype"**
  %reuse.cast53 = ptrtoint %"class.std::ctype"** %525 to i32
  call void @getReuseDistance(i32 %reuse.cast53)
  %526 = load %"class.std::ctype"** %525, align 4, !tbaa !4
  %527 = icmp eq %"class.std::ctype"* %526, null
  br i1 %527, label %528, label %_ZSt13__check_facetISt5ctypeIcEERKT_PS3_.exit

; <label>:528                                     ; preds = %514
  call void @_ZSt16__throw_bad_castv() #11
  unreachable

_ZSt13__check_facetISt5ctypeIcEERKT_PS3_.exit:    ; preds = %514
  %529 = getelementptr inbounds %"class.std::ctype"* %526, i32 0, i32 6
  %reuse.cast54 = ptrtoint i8* %529 to i32
  call void @getReuseDistance(i32 %reuse.cast54)
  %530 = load i8* %529, align 1, !tbaa !9
  %531 = icmp eq i8 %530, 0
  br i1 %531, label %535, label %532

; <label>:532                                     ; preds = %_ZSt13__check_facetISt5ctypeIcEERKT_PS3_.exit
  %533 = getelementptr inbounds %"class.std::ctype"* %526, i32 0, i32 7, i32 10
  %reuse.cast55 = ptrtoint i8* %533 to i32
  call void @getReuseDistance(i32 %reuse.cast55)
  %534 = load i8* %533, align 1, !tbaa !11
  br label %_ZNKSt5ctypeIcE5widenEc.exit

; <label>:535                                     ; preds = %_ZSt13__check_facetISt5ctypeIcEERKT_PS3_.exit
  call void @_ZNKSt5ctypeIcE13_M_widen_initEv(%"class.std::ctype"* %526)
  %536 = bitcast %"class.std::ctype"* %526 to i8 (%"class.std::ctype"*, i8)***
  %reuse.cast56 = ptrtoint i8 (%"class.std::ctype"*, i8)*** %536 to i32
  call void @getReuseDistance(i32 %reuse.cast56)
  %537 = load i8 (%"class.std::ctype"*, i8)*** %536, align 4, !tbaa !1
  %538 = getelementptr inbounds i8 (%"class.std::ctype"*, i8)** %537, i32 6
  %reuse.cast57 = ptrtoint i8 (%"class.std::ctype"*, i8)** %538 to i32
  call void @getReuseDistance(i32 %reuse.cast57)
  %539 = load i8 (%"class.std::ctype"*, i8)** %538, align 4
  %540 = call signext i8 %539(%"class.std::ctype"* %526, i8 signext 10)
  br label %_ZNKSt5ctypeIcE5widenEc.exit

_ZNKSt5ctypeIcE5widenEc.exit:                     ; preds = %535, %532
  %.0.i = phi i8 [ %534, %532 ], [ %540, %535 ]
  %541 = call dereferenceable(140) %"class.std::basic_ostream"* @_ZNSo3putEc(%"class.std::basic_ostream"* %516, i8 signext %.0.i)
  %542 = call dereferenceable(140) %"class.std::basic_ostream"* @_ZNSo5flushEv(%"class.std::basic_ostream"* %541)
  br label %543

; <label>:543                                     ; preds = %_ZNKSt5ctypeIcE5widenEc.exit, %506
  %reuse.cast58 = ptrtoint i32* %niters to i32
  call void @getReuseDistance(i32 %reuse.cast58)
  %544 = load i32* %niters, align 4, !tbaa !21
  %545 = sitofp i32 %544 to double
  %reuse.cast59 = ptrtoint %struct.HPC_Sparse_Matrix_STRUCT** %A to i32
  call void @getReuseDistance(i32 %reuse.cast59)
  %546 = load %struct.HPC_Sparse_Matrix_STRUCT** %A, align 4, !tbaa !12
  %547 = getelementptr inbounds %struct.HPC_Sparse_Matrix_STRUCT* %546, i32 0, i32 3
  %reuse.cast60 = ptrtoint i32* %547 to i32
  call void @getReuseDistance(i32 %reuse.cast60)
  %548 = load i32* %547, align 4, !tbaa !24
  %549 = sitofp i32 %548 to double
  %550 = getelementptr inbounds %struct.HPC_Sparse_Matrix_STRUCT* %546, i32 0, i32 4
  %reuse.cast61 = ptrtoint i64* %550 to i32
  call void @getReuseDistance(i32 %reuse.cast61)
  %551 = load i64* %550, align 4, !tbaa !27
  %552 = sitofp i64 %551 to double
  %553 = fmul double %545, 4.000000e+00
  %554 = fmul double %553, %549
  %555 = fmul double %545, 6.000000e+00
  %556 = fmul double %555, %549
  %557 = fmul double %545, 2.000000e+00
  %558 = fmul double %557, %552
  %559 = fadd double %554, %556
  %560 = fadd double %559, %558
  %561 = bitcast %class.YAML_Doc* %doc to i8*
  call void @llvm.lifetime.start(i64 36, i8* %561) #1
  invoke void @_ZNSsC1EPKcRKSaIcE(%"class.std::basic_string"* %221, i8* getelementptr inbounds ([6 x i8]* @.str9, i32 0, i32 0), %"class.std::allocator"* dereferenceable(1) %222)
          to label %562 unwind label %1773

; <label>:562                                     ; preds = %543
  invoke void @_ZNSsC1EPKcRKSaIcE(%"class.std::basic_string"* %223, i8* getelementptr inbounds ([4 x i8]* @.str10, i32 0, i32 0), %"class.std::allocator"* dereferenceable(1) %224)
          to label %563 unwind label %1777

; <label>:563                                     ; preds = %562
  invoke void @_ZNSsC1EPKcRKSaIcE(%"class.std::basic_string"* %225, i8* getelementptr inbounds ([1 x i8]* @.str11, i32 0, i32 0), %"class.std::allocator"* dereferenceable(1) %226)
          to label %564 unwind label %1781

; <label>:564                                     ; preds = %563
  invoke void @_ZNSsC1EPKcRKSaIcE(%"class.std::basic_string"* %227, i8* getelementptr inbounds ([1 x i8]* @.str11, i32 0, i32 0), %"class.std::allocator"* dereferenceable(1) %228)
          to label %565 unwind label %1785

; <label>:565                                     ; preds = %564
  invoke void @_ZN8YAML_DocC1ERKSsS1_S1_S1_(%class.YAML_Doc* %doc, %"class.std::basic_string"* dereferenceable(4) %221, %"class.std::basic_string"* dereferenceable(4) %223, %"class.std::basic_string"* dereferenceable(4) %225, %"class.std::basic_string"* dereferenceable(4) %227)
          to label %566 unwind label %1789

; <label>:566                                     ; preds = %565
  %567 = getelementptr inbounds %"class.std::allocator"* %220, i32 0, i32 0
  call void @llvm.lifetime.start(i64 1, i8* %567)
  %568 = getelementptr inbounds %"class.std::basic_string"* %227, i32 0, i32 0, i32 0
  %reuse.cast62 = ptrtoint i8** %568 to i32
  call void @getReuseDistance(i32 %reuse.cast62)
  %569 = load i8** %568, align 4, !tbaa !28
  %570 = getelementptr inbounds i8* %569, i32 -12
  %571 = bitcast i8* %570 to %"struct.std::basic_string<char, std::char_traits<char>, std::allocator<char> >::_Rep"*
  %572 = icmp eq i8* %570, bitcast ([0 x i32]* @_ZNSs4_Rep20_S_empty_rep_storageE to i8*)
  br i1 %572, label %585, label %573, !prof !31

; <label>:573                                     ; preds = %566
  %574 = getelementptr inbounds i8* %569, i32 -4
  %575 = bitcast i8* %574 to i32*
  br i1 icmp ne (i8* bitcast (i32 (i32*, void (i8*)*)* @__pthread_key_create to i8*), i8* null), label %576, label %580

; <label>:576                                     ; preds = %573
  %577 = bitcast i32* %219 to i8*
  call void @llvm.lifetime.start(i64 4, i8* %577)
  %578 = atomicrmw volatile add i32* %575, i32 -1 acq_rel
  %reuse.cast63 = ptrtoint i32* %219 to i32
  call void @getReuseDistance(i32 %reuse.cast63)
  store i32 %578, i32* %219, align 4
  %reuse.cast64 = ptrtoint i32* %219 to i32
  call void @getReuseDistance(i32 %reuse.cast64)
  %579 = load volatile i32* %219, align 4
  call void @llvm.lifetime.end(i64 4, i8* %577)
  br label %_ZN9__gnu_cxxL27__exchange_and_add_dispatchEPii.exit.i.i.i

; <label>:580                                     ; preds = %573
  %reuse.cast65 = ptrtoint i32* %575 to i32
  call void @getReuseDistance(i32 %reuse.cast65)
  %581 = load i32* %575, align 4, !tbaa !21
  %582 = add nsw i32 %581, -1
  %reuse.cast66 = ptrtoint i32* %575 to i32
  call void @getReuseDistance(i32 %reuse.cast66)
  store i32 %582, i32* %575, align 4, !tbaa !21
  br label %_ZN9__gnu_cxxL27__exchange_and_add_dispatchEPii.exit.i.i.i

_ZN9__gnu_cxxL27__exchange_and_add_dispatchEPii.exit.i.i.i: ; preds = %580, %576
  %.0.i.i.i.i = phi i32 [ %579, %576 ], [ %581, %580 ]
  %583 = icmp slt i32 %.0.i.i.i.i, 1
  br i1 %583, label %584, label %585

; <label>:584                                     ; preds = %_ZN9__gnu_cxxL27__exchange_and_add_dispatchEPii.exit.i.i.i
  call void @_ZNSs4_Rep10_M_destroyERKSaIcE(%"struct.std::basic_string<char, std::char_traits<char>, std::allocator<char> >::_Rep"* %571, %"class.std::allocator"* dereferenceable(1) %220) #1
  br label %585

; <label>:585                                     ; preds = %584, %_ZN9__gnu_cxxL27__exchange_and_add_dispatchEPii.exit.i.i.i, %566
  call void @llvm.lifetime.end(i64 1, i8* %567)
  %586 = getelementptr inbounds %"class.std::allocator"* %218, i32 0, i32 0
  call void @llvm.lifetime.start(i64 1, i8* %586)
  %587 = getelementptr inbounds %"class.std::basic_string"* %225, i32 0, i32 0, i32 0
  %reuse.cast67 = ptrtoint i8** %587 to i32
  call void @getReuseDistance(i32 %reuse.cast67)
  %588 = load i8** %587, align 4, !tbaa !28
  %589 = getelementptr inbounds i8* %588, i32 -12
  %590 = bitcast i8* %589 to %"struct.std::basic_string<char, std::char_traits<char>, std::allocator<char> >::_Rep"*
  %591 = icmp eq i8* %589, bitcast ([0 x i32]* @_ZNSs4_Rep20_S_empty_rep_storageE to i8*)
  br i1 %591, label %604, label %592, !prof !31

; <label>:592                                     ; preds = %585
  %593 = getelementptr inbounds i8* %588, i32 -4
  %594 = bitcast i8* %593 to i32*
  br i1 icmp ne (i8* bitcast (i32 (i32*, void (i8*)*)* @__pthread_key_create to i8*), i8* null), label %595, label %599

; <label>:595                                     ; preds = %592
  %596 = bitcast i32* %217 to i8*
  call void @llvm.lifetime.start(i64 4, i8* %596)
  %597 = atomicrmw volatile add i32* %594, i32 -1 acq_rel
  %reuse.cast68 = ptrtoint i32* %217 to i32
  call void @getReuseDistance(i32 %reuse.cast68)
  store i32 %597, i32* %217, align 4
  %reuse.cast69 = ptrtoint i32* %217 to i32
  call void @getReuseDistance(i32 %reuse.cast69)
  %598 = load volatile i32* %217, align 4
  call void @llvm.lifetime.end(i64 4, i8* %596)
  br label %_ZN9__gnu_cxxL27__exchange_and_add_dispatchEPii.exit.i.i.i85

; <label>:599                                     ; preds = %592
  %reuse.cast70 = ptrtoint i32* %594 to i32
  call void @getReuseDistance(i32 %reuse.cast70)
  %600 = load i32* %594, align 4, !tbaa !21
  %601 = add nsw i32 %600, -1
  %reuse.cast71 = ptrtoint i32* %594 to i32
  call void @getReuseDistance(i32 %reuse.cast71)
  store i32 %601, i32* %594, align 4, !tbaa !21
  br label %_ZN9__gnu_cxxL27__exchange_and_add_dispatchEPii.exit.i.i.i85

_ZN9__gnu_cxxL27__exchange_and_add_dispatchEPii.exit.i.i.i85: ; preds = %599, %595
  %.0.i.i.i.i84 = phi i32 [ %598, %595 ], [ %600, %599 ]
  %602 = icmp slt i32 %.0.i.i.i.i84, 1
  br i1 %602, label %603, label %604

; <label>:603                                     ; preds = %_ZN9__gnu_cxxL27__exchange_and_add_dispatchEPii.exit.i.i.i85
  call void @_ZNSs4_Rep10_M_destroyERKSaIcE(%"struct.std::basic_string<char, std::char_traits<char>, std::allocator<char> >::_Rep"* %590, %"class.std::allocator"* dereferenceable(1) %218) #1
  br label %604

; <label>:604                                     ; preds = %603, %_ZN9__gnu_cxxL27__exchange_and_add_dispatchEPii.exit.i.i.i85, %585
  call void @llvm.lifetime.end(i64 1, i8* %586)
  %605 = getelementptr inbounds %"class.std::allocator"* %216, i32 0, i32 0
  call void @llvm.lifetime.start(i64 1, i8* %605)
  %606 = getelementptr inbounds %"class.std::basic_string"* %223, i32 0, i32 0, i32 0
  %reuse.cast72 = ptrtoint i8** %606 to i32
  call void @getReuseDistance(i32 %reuse.cast72)
  %607 = load i8** %606, align 4, !tbaa !28
  %608 = getelementptr inbounds i8* %607, i32 -12
  %609 = bitcast i8* %608 to %"struct.std::basic_string<char, std::char_traits<char>, std::allocator<char> >::_Rep"*
  %610 = icmp eq i8* %608, bitcast ([0 x i32]* @_ZNSs4_Rep20_S_empty_rep_storageE to i8*)
  br i1 %610, label %623, label %611, !prof !31

; <label>:611                                     ; preds = %604
  %612 = getelementptr inbounds i8* %607, i32 -4
  %613 = bitcast i8* %612 to i32*
  br i1 icmp ne (i8* bitcast (i32 (i32*, void (i8*)*)* @__pthread_key_create to i8*), i8* null), label %614, label %618

; <label>:614                                     ; preds = %611
  %615 = bitcast i32* %215 to i8*
  call void @llvm.lifetime.start(i64 4, i8* %615)
  %616 = atomicrmw volatile add i32* %613, i32 -1 acq_rel
  %reuse.cast73 = ptrtoint i32* %215 to i32
  call void @getReuseDistance(i32 %reuse.cast73)
  store i32 %616, i32* %215, align 4
  %reuse.cast74 = ptrtoint i32* %215 to i32
  call void @getReuseDistance(i32 %reuse.cast74)
  %617 = load volatile i32* %215, align 4
  call void @llvm.lifetime.end(i64 4, i8* %615)
  br label %_ZN9__gnu_cxxL27__exchange_and_add_dispatchEPii.exit.i.i.i88

; <label>:618                                     ; preds = %611
  %reuse.cast75 = ptrtoint i32* %613 to i32
  call void @getReuseDistance(i32 %reuse.cast75)
  %619 = load i32* %613, align 4, !tbaa !21
  %620 = add nsw i32 %619, -1
  %reuse.cast76 = ptrtoint i32* %613 to i32
  call void @getReuseDistance(i32 %reuse.cast76)
  store i32 %620, i32* %613, align 4, !tbaa !21
  br label %_ZN9__gnu_cxxL27__exchange_and_add_dispatchEPii.exit.i.i.i88

_ZN9__gnu_cxxL27__exchange_and_add_dispatchEPii.exit.i.i.i88: ; preds = %618, %614
  %.0.i.i.i.i87 = phi i32 [ %617, %614 ], [ %619, %618 ]
  %621 = icmp slt i32 %.0.i.i.i.i87, 1
  br i1 %621, label %622, label %623

; <label>:622                                     ; preds = %_ZN9__gnu_cxxL27__exchange_and_add_dispatchEPii.exit.i.i.i88
  call void @_ZNSs4_Rep10_M_destroyERKSaIcE(%"struct.std::basic_string<char, std::char_traits<char>, std::allocator<char> >::_Rep"* %609, %"class.std::allocator"* dereferenceable(1) %216) #1
  br label %623

; <label>:623                                     ; preds = %622, %_ZN9__gnu_cxxL27__exchange_and_add_dispatchEPii.exit.i.i.i88, %604
  call void @llvm.lifetime.end(i64 1, i8* %605)
  %624 = getelementptr inbounds %"class.std::allocator"* %214, i32 0, i32 0
  call void @llvm.lifetime.start(i64 1, i8* %624)
  %625 = getelementptr inbounds %"class.std::basic_string"* %221, i32 0, i32 0, i32 0
  %reuse.cast77 = ptrtoint i8** %625 to i32
  call void @getReuseDistance(i32 %reuse.cast77)
  %626 = load i8** %625, align 4, !tbaa !28
  %627 = getelementptr inbounds i8* %626, i32 -12
  %628 = bitcast i8* %627 to %"struct.std::basic_string<char, std::char_traits<char>, std::allocator<char> >::_Rep"*
  %629 = icmp eq i8* %627, bitcast ([0 x i32]* @_ZNSs4_Rep20_S_empty_rep_storageE to i8*)
  br i1 %629, label %642, label %630, !prof !31

; <label>:630                                     ; preds = %623
  %631 = getelementptr inbounds i8* %626, i32 -4
  %632 = bitcast i8* %631 to i32*
  br i1 icmp ne (i8* bitcast (i32 (i32*, void (i8*)*)* @__pthread_key_create to i8*), i8* null), label %633, label %637

; <label>:633                                     ; preds = %630
  %634 = bitcast i32* %213 to i8*
  call void @llvm.lifetime.start(i64 4, i8* %634)
  %635 = atomicrmw volatile add i32* %632, i32 -1 acq_rel
  %reuse.cast78 = ptrtoint i32* %213 to i32
  call void @getReuseDistance(i32 %reuse.cast78)
  store i32 %635, i32* %213, align 4
  %reuse.cast79 = ptrtoint i32* %213 to i32
  call void @getReuseDistance(i32 %reuse.cast79)
  %636 = load volatile i32* %213, align 4
  call void @llvm.lifetime.end(i64 4, i8* %634)
  br label %_ZN9__gnu_cxxL27__exchange_and_add_dispatchEPii.exit.i.i.i91

; <label>:637                                     ; preds = %630
  %reuse.cast80 = ptrtoint i32* %632 to i32
  call void @getReuseDistance(i32 %reuse.cast80)
  %638 = load i32* %632, align 4, !tbaa !21
  %639 = add nsw i32 %638, -1
  %reuse.cast81 = ptrtoint i32* %632 to i32
  call void @getReuseDistance(i32 %reuse.cast81)
  store i32 %639, i32* %632, align 4, !tbaa !21
  br label %_ZN9__gnu_cxxL27__exchange_and_add_dispatchEPii.exit.i.i.i91

_ZN9__gnu_cxxL27__exchange_and_add_dispatchEPii.exit.i.i.i91: ; preds = %637, %633
  %.0.i.i.i.i90 = phi i32 [ %636, %633 ], [ %638, %637 ]
  %640 = icmp slt i32 %.0.i.i.i.i90, 1
  br i1 %640, label %641, label %642

; <label>:641                                     ; preds = %_ZN9__gnu_cxxL27__exchange_and_add_dispatchEPii.exit.i.i.i91
  call void @_ZNSs4_Rep10_M_destroyERKSaIcE(%"struct.std::basic_string<char, std::char_traits<char>, std::allocator<char> >::_Rep"* %628, %"class.std::allocator"* dereferenceable(1) %214) #1
  br label %642

; <label>:642                                     ; preds = %641, %_ZN9__gnu_cxxL27__exchange_and_add_dispatchEPii.exit.i.i.i91, %623
  call void @llvm.lifetime.end(i64 1, i8* %624)
  %643 = getelementptr inbounds %class.YAML_Doc* %doc, i32 0, i32 0
  invoke void @_ZNSsC1EPKcRKSaIcE(%"class.std::basic_string"* %229, i8* getelementptr inbounds ([12 x i8]* @.str12, i32 0, i32 0), %"class.std::allocator"* dereferenceable(1) %230)
          to label %644 unwind label %1865

; <label>:644                                     ; preds = %642
  invoke void @_ZNSsC1EPKcRKSaIcE(%"class.std::basic_string"* %231, i8* getelementptr inbounds ([1 x i8]* @.str11, i32 0, i32 0), %"class.std::allocator"* dereferenceable(1) %232)
          to label %645 unwind label %1869

; <label>:645                                     ; preds = %644
  %646 = invoke %class.YAML_Element* @_ZN12YAML_Element3addERKSsS1_(%class.YAML_Element* %643, %"class.std::basic_string"* dereferenceable(4) %229, %"class.std::basic_string"* dereferenceable(4) %231)
          to label %647 unwind label %1873

; <label>:647                                     ; preds = %645
  %648 = getelementptr inbounds %"class.std::allocator"* %212, i32 0, i32 0
  call void @llvm.lifetime.start(i64 1, i8* %648)
  %649 = getelementptr inbounds %"class.std::basic_string"* %231, i32 0, i32 0, i32 0
  %reuse.cast82 = ptrtoint i8** %649 to i32
  call void @getReuseDistance(i32 %reuse.cast82)
  %650 = load i8** %649, align 4, !tbaa !28
  %651 = getelementptr inbounds i8* %650, i32 -12
  %652 = bitcast i8* %651 to %"struct.std::basic_string<char, std::char_traits<char>, std::allocator<char> >::_Rep"*
  %653 = icmp eq i8* %651, bitcast ([0 x i32]* @_ZNSs4_Rep20_S_empty_rep_storageE to i8*)
  br i1 %653, label %666, label %654, !prof !31

; <label>:654                                     ; preds = %647
  %655 = getelementptr inbounds i8* %650, i32 -4
  %656 = bitcast i8* %655 to i32*
  br i1 icmp ne (i8* bitcast (i32 (i32*, void (i8*)*)* @__pthread_key_create to i8*), i8* null), label %657, label %661

; <label>:657                                     ; preds = %654
  %658 = bitcast i32* %211 to i8*
  call void @llvm.lifetime.start(i64 4, i8* %658)
  %659 = atomicrmw volatile add i32* %656, i32 -1 acq_rel
  %reuse.cast83 = ptrtoint i32* %211 to i32
  call void @getReuseDistance(i32 %reuse.cast83)
  store i32 %659, i32* %211, align 4
  %reuse.cast84 = ptrtoint i32* %211 to i32
  call void @getReuseDistance(i32 %reuse.cast84)
  %660 = load volatile i32* %211, align 4
  call void @llvm.lifetime.end(i64 4, i8* %658)
  br label %_ZN9__gnu_cxxL27__exchange_and_add_dispatchEPii.exit.i.i.i97

; <label>:661                                     ; preds = %654
  %reuse.cast85 = ptrtoint i32* %656 to i32
  call void @getReuseDistance(i32 %reuse.cast85)
  %662 = load i32* %656, align 4, !tbaa !21
  %663 = add nsw i32 %662, -1
  %reuse.cast86 = ptrtoint i32* %656 to i32
  call void @getReuseDistance(i32 %reuse.cast86)
  store i32 %663, i32* %656, align 4, !tbaa !21
  br label %_ZN9__gnu_cxxL27__exchange_and_add_dispatchEPii.exit.i.i.i97

_ZN9__gnu_cxxL27__exchange_and_add_dispatchEPii.exit.i.i.i97: ; preds = %661, %657
  %.0.i.i.i.i96 = phi i32 [ %660, %657 ], [ %662, %661 ]
  %664 = icmp slt i32 %.0.i.i.i.i96, 1
  br i1 %664, label %665, label %666

; <label>:665                                     ; preds = %_ZN9__gnu_cxxL27__exchange_and_add_dispatchEPii.exit.i.i.i97
  call void @_ZNSs4_Rep10_M_destroyERKSaIcE(%"struct.std::basic_string<char, std::char_traits<char>, std::allocator<char> >::_Rep"* %652, %"class.std::allocator"* dereferenceable(1) %212) #1
  br label %666

; <label>:666                                     ; preds = %665, %_ZN9__gnu_cxxL27__exchange_and_add_dispatchEPii.exit.i.i.i97, %647
  call void @llvm.lifetime.end(i64 1, i8* %648)
  %667 = getelementptr inbounds %"class.std::allocator"* %210, i32 0, i32 0
  call void @llvm.lifetime.start(i64 1, i8* %667)
  %668 = getelementptr inbounds %"class.std::basic_string"* %229, i32 0, i32 0, i32 0
  %reuse.cast87 = ptrtoint i8** %668 to i32
  call void @getReuseDistance(i32 %reuse.cast87)
  %669 = load i8** %668, align 4, !tbaa !28
  %670 = getelementptr inbounds i8* %669, i32 -12
  %671 = bitcast i8* %670 to %"struct.std::basic_string<char, std::char_traits<char>, std::allocator<char> >::_Rep"*
  %672 = icmp eq i8* %670, bitcast ([0 x i32]* @_ZNSs4_Rep20_S_empty_rep_storageE to i8*)
  br i1 %672, label %685, label %673, !prof !31

; <label>:673                                     ; preds = %666
  %674 = getelementptr inbounds i8* %669, i32 -4
  %675 = bitcast i8* %674 to i32*
  br i1 icmp ne (i8* bitcast (i32 (i32*, void (i8*)*)* @__pthread_key_create to i8*), i8* null), label %676, label %680

; <label>:676                                     ; preds = %673
  %677 = bitcast i32* %209 to i8*
  call void @llvm.lifetime.start(i64 4, i8* %677)
  %678 = atomicrmw volatile add i32* %675, i32 -1 acq_rel
  %reuse.cast88 = ptrtoint i32* %209 to i32
  call void @getReuseDistance(i32 %reuse.cast88)
  store i32 %678, i32* %209, align 4
  %reuse.cast89 = ptrtoint i32* %209 to i32
  call void @getReuseDistance(i32 %reuse.cast89)
  %679 = load volatile i32* %209, align 4
  call void @llvm.lifetime.end(i64 4, i8* %677)
  br label %_ZN9__gnu_cxxL27__exchange_and_add_dispatchEPii.exit.i.i.i100

; <label>:680                                     ; preds = %673
  %reuse.cast90 = ptrtoint i32* %675 to i32
  call void @getReuseDistance(i32 %reuse.cast90)
  %681 = load i32* %675, align 4, !tbaa !21
  %682 = add nsw i32 %681, -1
  %reuse.cast91 = ptrtoint i32* %675 to i32
  call void @getReuseDistance(i32 %reuse.cast91)
  store i32 %682, i32* %675, align 4, !tbaa !21
  br label %_ZN9__gnu_cxxL27__exchange_and_add_dispatchEPii.exit.i.i.i100

_ZN9__gnu_cxxL27__exchange_and_add_dispatchEPii.exit.i.i.i100: ; preds = %680, %676
  %.0.i.i.i.i99 = phi i32 [ %679, %676 ], [ %681, %680 ]
  %683 = icmp slt i32 %.0.i.i.i.i99, 1
  br i1 %683, label %684, label %685

; <label>:684                                     ; preds = %_ZN9__gnu_cxxL27__exchange_and_add_dispatchEPii.exit.i.i.i100
  call void @_ZNSs4_Rep10_M_destroyERKSaIcE(%"struct.std::basic_string<char, std::char_traits<char>, std::allocator<char> >::_Rep"* %671, %"class.std::allocator"* dereferenceable(1) %210) #1
  br label %685

; <label>:685                                     ; preds = %684, %_ZN9__gnu_cxxL27__exchange_and_add_dispatchEPii.exit.i.i.i100, %666
  call void @llvm.lifetime.end(i64 1, i8* %667)
  invoke void @_ZNSsC1EPKcRKSaIcE(%"class.std::basic_string"* %233, i8* getelementptr inbounds ([12 x i8]* @.str12, i32 0, i32 0), %"class.std::allocator"* dereferenceable(1) %234)
          to label %686 unwind label %1913

; <label>:686                                     ; preds = %685
  %687 = invoke %class.YAML_Element* @_ZN12YAML_Element3getERKSs(%class.YAML_Element* %643, %"class.std::basic_string"* dereferenceable(4) %233)
          to label %688 unwind label %1917

; <label>:688                                     ; preds = %686
  invoke void @_ZNSsC1EPKcRKSaIcE(%"class.std::basic_string"* %235, i8* getelementptr inbounds ([16 x i8]* @.str13, i32 0, i32 0), %"class.std::allocator"* dereferenceable(1) %236)
          to label %689 unwind label %1921

; <label>:689                                     ; preds = %688
  invoke void @_ZNSsC1EPKcRKSaIcE(%"class.std::basic_string"* %237, i8* getelementptr inbounds ([1 x i8]* @.str11, i32 0, i32 0), %"class.std::allocator"* dereferenceable(1) %238)
          to label %690 unwind label %1925

; <label>:690                                     ; preds = %689
  %691 = invoke %class.YAML_Element* @_ZN12YAML_Element3addERKSsS1_(%class.YAML_Element* %687, %"class.std::basic_string"* dereferenceable(4) %235, %"class.std::basic_string"* dereferenceable(4) %237)
          to label %692 unwind label %1929

; <label>:692                                     ; preds = %690
  %693 = getelementptr inbounds %"class.std::allocator"* %208, i32 0, i32 0
  call void @llvm.lifetime.start(i64 1, i8* %693)
  %694 = getelementptr inbounds %"class.std::basic_string"* %237, i32 0, i32 0, i32 0
  %reuse.cast92 = ptrtoint i8** %694 to i32
  call void @getReuseDistance(i32 %reuse.cast92)
  %695 = load i8** %694, align 4, !tbaa !28
  %696 = getelementptr inbounds i8* %695, i32 -12
  %697 = bitcast i8* %696 to %"struct.std::basic_string<char, std::char_traits<char>, std::allocator<char> >::_Rep"*
  %698 = icmp eq i8* %696, bitcast ([0 x i32]* @_ZNSs4_Rep20_S_empty_rep_storageE to i8*)
  br i1 %698, label %711, label %699, !prof !31

; <label>:699                                     ; preds = %692
  %700 = getelementptr inbounds i8* %695, i32 -4
  %701 = bitcast i8* %700 to i32*
  br i1 icmp ne (i8* bitcast (i32 (i32*, void (i8*)*)* @__pthread_key_create to i8*), i8* null), label %702, label %706

; <label>:702                                     ; preds = %699
  %703 = bitcast i32* %207 to i8*
  call void @llvm.lifetime.start(i64 4, i8* %703)
  %704 = atomicrmw volatile add i32* %701, i32 -1 acq_rel
  %reuse.cast93 = ptrtoint i32* %207 to i32
  call void @getReuseDistance(i32 %reuse.cast93)
  store i32 %704, i32* %207, align 4
  %reuse.cast94 = ptrtoint i32* %207 to i32
  call void @getReuseDistance(i32 %reuse.cast94)
  %705 = load volatile i32* %207, align 4
  call void @llvm.lifetime.end(i64 4, i8* %703)
  br label %_ZN9__gnu_cxxL27__exchange_and_add_dispatchEPii.exit.i.i.i106

; <label>:706                                     ; preds = %699
  %reuse.cast95 = ptrtoint i32* %701 to i32
  call void @getReuseDistance(i32 %reuse.cast95)
  %707 = load i32* %701, align 4, !tbaa !21
  %708 = add nsw i32 %707, -1
  %reuse.cast96 = ptrtoint i32* %701 to i32
  call void @getReuseDistance(i32 %reuse.cast96)
  store i32 %708, i32* %701, align 4, !tbaa !21
  br label %_ZN9__gnu_cxxL27__exchange_and_add_dispatchEPii.exit.i.i.i106

_ZN9__gnu_cxxL27__exchange_and_add_dispatchEPii.exit.i.i.i106: ; preds = %706, %702
  %.0.i.i.i.i105 = phi i32 [ %705, %702 ], [ %707, %706 ]
  %709 = icmp slt i32 %.0.i.i.i.i105, 1
  br i1 %709, label %710, label %711

; <label>:710                                     ; preds = %_ZN9__gnu_cxxL27__exchange_and_add_dispatchEPii.exit.i.i.i106
  call void @_ZNSs4_Rep10_M_destroyERKSaIcE(%"struct.std::basic_string<char, std::char_traits<char>, std::allocator<char> >::_Rep"* %697, %"class.std::allocator"* dereferenceable(1) %208) #1
  br label %711

; <label>:711                                     ; preds = %710, %_ZN9__gnu_cxxL27__exchange_and_add_dispatchEPii.exit.i.i.i106, %692
  call void @llvm.lifetime.end(i64 1, i8* %693)
  %712 = getelementptr inbounds %"class.std::allocator"* %206, i32 0, i32 0
  call void @llvm.lifetime.start(i64 1, i8* %712)
  %713 = getelementptr inbounds %"class.std::basic_string"* %235, i32 0, i32 0, i32 0
  %reuse.cast97 = ptrtoint i8** %713 to i32
  call void @getReuseDistance(i32 %reuse.cast97)
  %714 = load i8** %713, align 4, !tbaa !28
  %715 = getelementptr inbounds i8* %714, i32 -12
  %716 = bitcast i8* %715 to %"struct.std::basic_string<char, std::char_traits<char>, std::allocator<char> >::_Rep"*
  %717 = icmp eq i8* %715, bitcast ([0 x i32]* @_ZNSs4_Rep20_S_empty_rep_storageE to i8*)
  br i1 %717, label %730, label %718, !prof !31

; <label>:718                                     ; preds = %711
  %719 = getelementptr inbounds i8* %714, i32 -4
  %720 = bitcast i8* %719 to i32*
  br i1 icmp ne (i8* bitcast (i32 (i32*, void (i8*)*)* @__pthread_key_create to i8*), i8* null), label %721, label %725

; <label>:721                                     ; preds = %718
  %722 = bitcast i32* %205 to i8*
  call void @llvm.lifetime.start(i64 4, i8* %722)
  %723 = atomicrmw volatile add i32* %720, i32 -1 acq_rel
  %reuse.cast98 = ptrtoint i32* %205 to i32
  call void @getReuseDistance(i32 %reuse.cast98)
  store i32 %723, i32* %205, align 4
  %reuse.cast99 = ptrtoint i32* %205 to i32
  call void @getReuseDistance(i32 %reuse.cast99)
  %724 = load volatile i32* %205, align 4
  call void @llvm.lifetime.end(i64 4, i8* %722)
  br label %_ZN9__gnu_cxxL27__exchange_and_add_dispatchEPii.exit.i.i.i109

; <label>:725                                     ; preds = %718
  %reuse.cast100 = ptrtoint i32* %720 to i32
  call void @getReuseDistance(i32 %reuse.cast100)
  %726 = load i32* %720, align 4, !tbaa !21
  %727 = add nsw i32 %726, -1
  %reuse.cast101 = ptrtoint i32* %720 to i32
  call void @getReuseDistance(i32 %reuse.cast101)
  store i32 %727, i32* %720, align 4, !tbaa !21
  br label %_ZN9__gnu_cxxL27__exchange_and_add_dispatchEPii.exit.i.i.i109

_ZN9__gnu_cxxL27__exchange_and_add_dispatchEPii.exit.i.i.i109: ; preds = %725, %721
  %.0.i.i.i.i108 = phi i32 [ %724, %721 ], [ %726, %725 ]
  %728 = icmp slt i32 %.0.i.i.i.i108, 1
  br i1 %728, label %729, label %730

; <label>:729                                     ; preds = %_ZN9__gnu_cxxL27__exchange_and_add_dispatchEPii.exit.i.i.i109
  call void @_ZNSs4_Rep10_M_destroyERKSaIcE(%"struct.std::basic_string<char, std::char_traits<char>, std::allocator<char> >::_Rep"* %716, %"class.std::allocator"* dereferenceable(1) %206) #1
  br label %730

; <label>:730                                     ; preds = %729, %_ZN9__gnu_cxxL27__exchange_and_add_dispatchEPii.exit.i.i.i109, %711
  call void @llvm.lifetime.end(i64 1, i8* %712)
  %731 = getelementptr inbounds %"class.std::allocator"* %204, i32 0, i32 0
  call void @llvm.lifetime.start(i64 1, i8* %731)
  %732 = getelementptr inbounds %"class.std::basic_string"* %233, i32 0, i32 0, i32 0
  %reuse.cast102 = ptrtoint i8** %732 to i32
  call void @getReuseDistance(i32 %reuse.cast102)
  %733 = load i8** %732, align 4, !tbaa !28
  %734 = getelementptr inbounds i8* %733, i32 -12
  %735 = bitcast i8* %734 to %"struct.std::basic_string<char, std::char_traits<char>, std::allocator<char> >::_Rep"*
  %736 = icmp eq i8* %734, bitcast ([0 x i32]* @_ZNSs4_Rep20_S_empty_rep_storageE to i8*)
  br i1 %736, label %749, label %737, !prof !31

; <label>:737                                     ; preds = %730
  %738 = getelementptr inbounds i8* %733, i32 -4
  %739 = bitcast i8* %738 to i32*
  br i1 icmp ne (i8* bitcast (i32 (i32*, void (i8*)*)* @__pthread_key_create to i8*), i8* null), label %740, label %744

; <label>:740                                     ; preds = %737
  %741 = bitcast i32* %203 to i8*
  call void @llvm.lifetime.start(i64 4, i8* %741)
  %742 = atomicrmw volatile add i32* %739, i32 -1 acq_rel
  %reuse.cast103 = ptrtoint i32* %203 to i32
  call void @getReuseDistance(i32 %reuse.cast103)
  store i32 %742, i32* %203, align 4
  %reuse.cast104 = ptrtoint i32* %203 to i32
  call void @getReuseDistance(i32 %reuse.cast104)
  %743 = load volatile i32* %203, align 4
  call void @llvm.lifetime.end(i64 4, i8* %741)
  br label %_ZN9__gnu_cxxL27__exchange_and_add_dispatchEPii.exit.i.i.i112

; <label>:744                                     ; preds = %737
  %reuse.cast105 = ptrtoint i32* %739 to i32
  call void @getReuseDistance(i32 %reuse.cast105)
  %745 = load i32* %739, align 4, !tbaa !21
  %746 = add nsw i32 %745, -1
  %reuse.cast106 = ptrtoint i32* %739 to i32
  call void @getReuseDistance(i32 %reuse.cast106)
  store i32 %746, i32* %739, align 4, !tbaa !21
  br label %_ZN9__gnu_cxxL27__exchange_and_add_dispatchEPii.exit.i.i.i112

_ZN9__gnu_cxxL27__exchange_and_add_dispatchEPii.exit.i.i.i112: ; preds = %744, %740
  %.0.i.i.i.i111 = phi i32 [ %743, %740 ], [ %745, %744 ]
  %747 = icmp slt i32 %.0.i.i.i.i111, 1
  br i1 %747, label %748, label %749

; <label>:748                                     ; preds = %_ZN9__gnu_cxxL27__exchange_and_add_dispatchEPii.exit.i.i.i112
  call void @_ZNSs4_Rep10_M_destroyERKSaIcE(%"struct.std::basic_string<char, std::char_traits<char>, std::allocator<char> >::_Rep"* %735, %"class.std::allocator"* dereferenceable(1) %204) #1
  br label %749

; <label>:749                                     ; preds = %748, %_ZN9__gnu_cxxL27__exchange_and_add_dispatchEPii.exit.i.i.i112, %730
  call void @llvm.lifetime.end(i64 1, i8* %731)
  invoke void @_ZNSsC1EPKcRKSaIcE(%"class.std::basic_string"* %239, i8* getelementptr inbounds ([12 x i8]* @.str12, i32 0, i32 0), %"class.std::allocator"* dereferenceable(1) %240)
          to label %750 unwind label %1987

; <label>:750                                     ; preds = %749
  %751 = invoke %class.YAML_Element* @_ZN12YAML_Element3getERKSs(%class.YAML_Element* %643, %"class.std::basic_string"* dereferenceable(4) %239)
          to label %752 unwind label %1991

; <label>:752                                     ; preds = %750
  invoke void @_ZNSsC1EPKcRKSaIcE(%"class.std::basic_string"* %241, i8* getelementptr inbounds ([19 x i8]* @.str14, i32 0, i32 0), %"class.std::allocator"* dereferenceable(1) %242)
          to label %753 unwind label %1995

; <label>:753                                     ; preds = %752
  invoke void @_ZNSsC1EPKcRKSaIcE(%"class.std::basic_string"* %243, i8* getelementptr inbounds ([1 x i8]* @.str11, i32 0, i32 0), %"class.std::allocator"* dereferenceable(1) %244)
          to label %754 unwind label %1999

; <label>:754                                     ; preds = %753
  %755 = invoke %class.YAML_Element* @_ZN12YAML_Element3addERKSsS1_(%class.YAML_Element* %751, %"class.std::basic_string"* dereferenceable(4) %241, %"class.std::basic_string"* dereferenceable(4) %243)
          to label %756 unwind label %2003

; <label>:756                                     ; preds = %754
  %757 = getelementptr inbounds %"class.std::allocator"* %202, i32 0, i32 0
  call void @llvm.lifetime.start(i64 1, i8* %757)
  %758 = getelementptr inbounds %"class.std::basic_string"* %243, i32 0, i32 0, i32 0
  %reuse.cast107 = ptrtoint i8** %758 to i32
  call void @getReuseDistance(i32 %reuse.cast107)
  %759 = load i8** %758, align 4, !tbaa !28
  %760 = getelementptr inbounds i8* %759, i32 -12
  %761 = bitcast i8* %760 to %"struct.std::basic_string<char, std::char_traits<char>, std::allocator<char> >::_Rep"*
  %762 = icmp eq i8* %760, bitcast ([0 x i32]* @_ZNSs4_Rep20_S_empty_rep_storageE to i8*)
  br i1 %762, label %775, label %763, !prof !31

; <label>:763                                     ; preds = %756
  %764 = getelementptr inbounds i8* %759, i32 -4
  %765 = bitcast i8* %764 to i32*
  br i1 icmp ne (i8* bitcast (i32 (i32*, void (i8*)*)* @__pthread_key_create to i8*), i8* null), label %766, label %770

; <label>:766                                     ; preds = %763
  %767 = bitcast i32* %201 to i8*
  call void @llvm.lifetime.start(i64 4, i8* %767)
  %768 = atomicrmw volatile add i32* %765, i32 -1 acq_rel
  %reuse.cast108 = ptrtoint i32* %201 to i32
  call void @getReuseDistance(i32 %reuse.cast108)
  store i32 %768, i32* %201, align 4
  %reuse.cast109 = ptrtoint i32* %201 to i32
  call void @getReuseDistance(i32 %reuse.cast109)
  %769 = load volatile i32* %201, align 4
  call void @llvm.lifetime.end(i64 4, i8* %767)
  br label %_ZN9__gnu_cxxL27__exchange_and_add_dispatchEPii.exit.i.i.i117

; <label>:770                                     ; preds = %763
  %reuse.cast110 = ptrtoint i32* %765 to i32
  call void @getReuseDistance(i32 %reuse.cast110)
  %771 = load i32* %765, align 4, !tbaa !21
  %772 = add nsw i32 %771, -1
  %reuse.cast111 = ptrtoint i32* %765 to i32
  call void @getReuseDistance(i32 %reuse.cast111)
  store i32 %772, i32* %765, align 4, !tbaa !21
  br label %_ZN9__gnu_cxxL27__exchange_and_add_dispatchEPii.exit.i.i.i117

_ZN9__gnu_cxxL27__exchange_and_add_dispatchEPii.exit.i.i.i117: ; preds = %770, %766
  %.0.i.i.i.i116 = phi i32 [ %769, %766 ], [ %771, %770 ]
  %773 = icmp slt i32 %.0.i.i.i.i116, 1
  br i1 %773, label %774, label %775

; <label>:774                                     ; preds = %_ZN9__gnu_cxxL27__exchange_and_add_dispatchEPii.exit.i.i.i117
  call void @_ZNSs4_Rep10_M_destroyERKSaIcE(%"struct.std::basic_string<char, std::char_traits<char>, std::allocator<char> >::_Rep"* %761, %"class.std::allocator"* dereferenceable(1) %202) #1
  br label %775

; <label>:775                                     ; preds = %774, %_ZN9__gnu_cxxL27__exchange_and_add_dispatchEPii.exit.i.i.i117, %756
  call void @llvm.lifetime.end(i64 1, i8* %757)
  %776 = getelementptr inbounds %"class.std::allocator"* %200, i32 0, i32 0
  call void @llvm.lifetime.start(i64 1, i8* %776)
  %777 = getelementptr inbounds %"class.std::basic_string"* %241, i32 0, i32 0, i32 0
  %reuse.cast112 = ptrtoint i8** %777 to i32
  call void @getReuseDistance(i32 %reuse.cast112)
  %778 = load i8** %777, align 4, !tbaa !28
  %779 = getelementptr inbounds i8* %778, i32 -12
  %780 = bitcast i8* %779 to %"struct.std::basic_string<char, std::char_traits<char>, std::allocator<char> >::_Rep"*
  %781 = icmp eq i8* %779, bitcast ([0 x i32]* @_ZNSs4_Rep20_S_empty_rep_storageE to i8*)
  br i1 %781, label %794, label %782, !prof !31

; <label>:782                                     ; preds = %775
  %783 = getelementptr inbounds i8* %778, i32 -4
  %784 = bitcast i8* %783 to i32*
  br i1 icmp ne (i8* bitcast (i32 (i32*, void (i8*)*)* @__pthread_key_create to i8*), i8* null), label %785, label %789

; <label>:785                                     ; preds = %782
  %786 = bitcast i32* %199 to i8*
  call void @llvm.lifetime.start(i64 4, i8* %786)
  %787 = atomicrmw volatile add i32* %784, i32 -1 acq_rel
  %reuse.cast113 = ptrtoint i32* %199 to i32
  call void @getReuseDistance(i32 %reuse.cast113)
  store i32 %787, i32* %199, align 4
  %reuse.cast114 = ptrtoint i32* %199 to i32
  call void @getReuseDistance(i32 %reuse.cast114)
  %788 = load volatile i32* %199, align 4
  call void @llvm.lifetime.end(i64 4, i8* %786)
  br label %_ZN9__gnu_cxxL27__exchange_and_add_dispatchEPii.exit.i.i.i120

; <label>:789                                     ; preds = %782
  %reuse.cast115 = ptrtoint i32* %784 to i32
  call void @getReuseDistance(i32 %reuse.cast115)
  %790 = load i32* %784, align 4, !tbaa !21
  %791 = add nsw i32 %790, -1
  %reuse.cast116 = ptrtoint i32* %784 to i32
  call void @getReuseDistance(i32 %reuse.cast116)
  store i32 %791, i32* %784, align 4, !tbaa !21
  br label %_ZN9__gnu_cxxL27__exchange_and_add_dispatchEPii.exit.i.i.i120

_ZN9__gnu_cxxL27__exchange_and_add_dispatchEPii.exit.i.i.i120: ; preds = %789, %785
  %.0.i.i.i.i119 = phi i32 [ %788, %785 ], [ %790, %789 ]
  %792 = icmp slt i32 %.0.i.i.i.i119, 1
  br i1 %792, label %793, label %794

; <label>:793                                     ; preds = %_ZN9__gnu_cxxL27__exchange_and_add_dispatchEPii.exit.i.i.i120
  call void @_ZNSs4_Rep10_M_destroyERKSaIcE(%"struct.std::basic_string<char, std::char_traits<char>, std::allocator<char> >::_Rep"* %780, %"class.std::allocator"* dereferenceable(1) %200) #1
  br label %794

; <label>:794                                     ; preds = %793, %_ZN9__gnu_cxxL27__exchange_and_add_dispatchEPii.exit.i.i.i120, %775
  call void @llvm.lifetime.end(i64 1, i8* %776)
  %795 = getelementptr inbounds %"class.std::allocator"* %198, i32 0, i32 0
  call void @llvm.lifetime.start(i64 1, i8* %795)
  %796 = getelementptr inbounds %"class.std::basic_string"* %239, i32 0, i32 0, i32 0
  %reuse.cast117 = ptrtoint i8** %796 to i32
  call void @getReuseDistance(i32 %reuse.cast117)
  %797 = load i8** %796, align 4, !tbaa !28
  %798 = getelementptr inbounds i8* %797, i32 -12
  %799 = bitcast i8* %798 to %"struct.std::basic_string<char, std::char_traits<char>, std::allocator<char> >::_Rep"*
  %800 = icmp eq i8* %798, bitcast ([0 x i32]* @_ZNSs4_Rep20_S_empty_rep_storageE to i8*)
  br i1 %800, label %813, label %801, !prof !31

; <label>:801                                     ; preds = %794
  %802 = getelementptr inbounds i8* %797, i32 -4
  %803 = bitcast i8* %802 to i32*
  br i1 icmp ne (i8* bitcast (i32 (i32*, void (i8*)*)* @__pthread_key_create to i8*), i8* null), label %804, label %808

; <label>:804                                     ; preds = %801
  %805 = bitcast i32* %197 to i8*
  call void @llvm.lifetime.start(i64 4, i8* %805)
  %806 = atomicrmw volatile add i32* %803, i32 -1 acq_rel
  %reuse.cast118 = ptrtoint i32* %197 to i32
  call void @getReuseDistance(i32 %reuse.cast118)
  store i32 %806, i32* %197, align 4
  %reuse.cast119 = ptrtoint i32* %197 to i32
  call void @getReuseDistance(i32 %reuse.cast119)
  %807 = load volatile i32* %197, align 4
  call void @llvm.lifetime.end(i64 4, i8* %805)
  br label %_ZN9__gnu_cxxL27__exchange_and_add_dispatchEPii.exit.i.i.i124

; <label>:808                                     ; preds = %801
  %reuse.cast120 = ptrtoint i32* %803 to i32
  call void @getReuseDistance(i32 %reuse.cast120)
  %809 = load i32* %803, align 4, !tbaa !21
  %810 = add nsw i32 %809, -1
  %reuse.cast121 = ptrtoint i32* %803 to i32
  call void @getReuseDistance(i32 %reuse.cast121)
  store i32 %810, i32* %803, align 4, !tbaa !21
  br label %_ZN9__gnu_cxxL27__exchange_and_add_dispatchEPii.exit.i.i.i124

_ZN9__gnu_cxxL27__exchange_and_add_dispatchEPii.exit.i.i.i124: ; preds = %808, %804
  %.0.i.i.i.i123 = phi i32 [ %807, %804 ], [ %809, %808 ]
  %811 = icmp slt i32 %.0.i.i.i.i123, 1
  br i1 %811, label %812, label %813

; <label>:812                                     ; preds = %_ZN9__gnu_cxxL27__exchange_and_add_dispatchEPii.exit.i.i.i124
  call void @_ZNSs4_Rep10_M_destroyERKSaIcE(%"struct.std::basic_string<char, std::char_traits<char>, std::allocator<char> >::_Rep"* %799, %"class.std::allocator"* dereferenceable(1) %198) #1
  br label %813

; <label>:813                                     ; preds = %812, %_ZN9__gnu_cxxL27__exchange_and_add_dispatchEPii.exit.i.i.i124, %794
  call void @llvm.lifetime.end(i64 1, i8* %795)
  invoke void @_ZNSsC1EPKcRKSaIcE(%"class.std::basic_string"* %245, i8* getelementptr inbounds ([11 x i8]* @.str15, i32 0, i32 0), %"class.std::allocator"* dereferenceable(1) %246)
          to label %814 unwind label %2061

; <label>:814                                     ; preds = %813
  invoke void @_ZNSsC1EPKcRKSaIcE(%"class.std::basic_string"* %247, i8* getelementptr inbounds ([1 x i8]* @.str11, i32 0, i32 0), %"class.std::allocator"* dereferenceable(1) %248)
          to label %815 unwind label %2065

; <label>:815                                     ; preds = %814
  %816 = invoke %class.YAML_Element* @_ZN12YAML_Element3addERKSsS1_(%class.YAML_Element* %643, %"class.std::basic_string"* dereferenceable(4) %245, %"class.std::basic_string"* dereferenceable(4) %247)
          to label %817 unwind label %2069

; <label>:817                                     ; preds = %815
  %818 = getelementptr inbounds %"class.std::allocator"* %196, i32 0, i32 0
  call void @llvm.lifetime.start(i64 1, i8* %818)
  %819 = getelementptr inbounds %"class.std::basic_string"* %247, i32 0, i32 0, i32 0
  %reuse.cast122 = ptrtoint i8** %819 to i32
  call void @getReuseDistance(i32 %reuse.cast122)
  %820 = load i8** %819, align 4, !tbaa !28
  %821 = getelementptr inbounds i8* %820, i32 -12
  %822 = bitcast i8* %821 to %"struct.std::basic_string<char, std::char_traits<char>, std::allocator<char> >::_Rep"*
  %823 = icmp eq i8* %821, bitcast ([0 x i32]* @_ZNSs4_Rep20_S_empty_rep_storageE to i8*)
  br i1 %823, label %836, label %824, !prof !31

; <label>:824                                     ; preds = %817
  %825 = getelementptr inbounds i8* %820, i32 -4
  %826 = bitcast i8* %825 to i32*
  br i1 icmp ne (i8* bitcast (i32 (i32*, void (i8*)*)* @__pthread_key_create to i8*), i8* null), label %827, label %831

; <label>:827                                     ; preds = %824
  %828 = bitcast i32* %195 to i8*
  call void @llvm.lifetime.start(i64 4, i8* %828)
  %829 = atomicrmw volatile add i32* %826, i32 -1 acq_rel
  %reuse.cast123 = ptrtoint i32* %195 to i32
  call void @getReuseDistance(i32 %reuse.cast123)
  store i32 %829, i32* %195, align 4
  %reuse.cast124 = ptrtoint i32* %195 to i32
  call void @getReuseDistance(i32 %reuse.cast124)
  %830 = load volatile i32* %195, align 4
  call void @llvm.lifetime.end(i64 4, i8* %828)
  br label %_ZN9__gnu_cxxL27__exchange_and_add_dispatchEPii.exit.i.i.i129

; <label>:831                                     ; preds = %824
  %reuse.cast125 = ptrtoint i32* %826 to i32
  call void @getReuseDistance(i32 %reuse.cast125)
  %832 = load i32* %826, align 4, !tbaa !21
  %833 = add nsw i32 %832, -1
  %reuse.cast126 = ptrtoint i32* %826 to i32
  call void @getReuseDistance(i32 %reuse.cast126)
  store i32 %833, i32* %826, align 4, !tbaa !21
  br label %_ZN9__gnu_cxxL27__exchange_and_add_dispatchEPii.exit.i.i.i129

_ZN9__gnu_cxxL27__exchange_and_add_dispatchEPii.exit.i.i.i129: ; preds = %831, %827
  %.0.i.i.i.i128 = phi i32 [ %830, %827 ], [ %832, %831 ]
  %834 = icmp slt i32 %.0.i.i.i.i128, 1
  br i1 %834, label %835, label %836

; <label>:835                                     ; preds = %_ZN9__gnu_cxxL27__exchange_and_add_dispatchEPii.exit.i.i.i129
  call void @_ZNSs4_Rep10_M_destroyERKSaIcE(%"struct.std::basic_string<char, std::char_traits<char>, std::allocator<char> >::_Rep"* %822, %"class.std::allocator"* dereferenceable(1) %196) #1
  br label %836

; <label>:836                                     ; preds = %835, %_ZN9__gnu_cxxL27__exchange_and_add_dispatchEPii.exit.i.i.i129, %817
  call void @llvm.lifetime.end(i64 1, i8* %818)
  %837 = getelementptr inbounds %"class.std::allocator"* %194, i32 0, i32 0
  call void @llvm.lifetime.start(i64 1, i8* %837)
  %838 = getelementptr inbounds %"class.std::basic_string"* %245, i32 0, i32 0, i32 0
  %reuse.cast127 = ptrtoint i8** %838 to i32
  call void @getReuseDistance(i32 %reuse.cast127)
  %839 = load i8** %838, align 4, !tbaa !28
  %840 = getelementptr inbounds i8* %839, i32 -12
  %841 = bitcast i8* %840 to %"struct.std::basic_string<char, std::char_traits<char>, std::allocator<char> >::_Rep"*
  %842 = icmp eq i8* %840, bitcast ([0 x i32]* @_ZNSs4_Rep20_S_empty_rep_storageE to i8*)
  br i1 %842, label %855, label %843, !prof !31

; <label>:843                                     ; preds = %836
  %844 = getelementptr inbounds i8* %839, i32 -4
  %845 = bitcast i8* %844 to i32*
  br i1 icmp ne (i8* bitcast (i32 (i32*, void (i8*)*)* @__pthread_key_create to i8*), i8* null), label %846, label %850

; <label>:846                                     ; preds = %843
  %847 = bitcast i32* %193 to i8*
  call void @llvm.lifetime.start(i64 4, i8* %847)
  %848 = atomicrmw volatile add i32* %845, i32 -1 acq_rel
  %reuse.cast128 = ptrtoint i32* %193 to i32
  call void @getReuseDistance(i32 %reuse.cast128)
  store i32 %848, i32* %193, align 4
  %reuse.cast129 = ptrtoint i32* %193 to i32
  call void @getReuseDistance(i32 %reuse.cast129)
  %849 = load volatile i32* %193, align 4
  call void @llvm.lifetime.end(i64 4, i8* %847)
  br label %_ZN9__gnu_cxxL27__exchange_and_add_dispatchEPii.exit.i.i.i132

; <label>:850                                     ; preds = %843
  %reuse.cast130 = ptrtoint i32* %845 to i32
  call void @getReuseDistance(i32 %reuse.cast130)
  %851 = load i32* %845, align 4, !tbaa !21
  %852 = add nsw i32 %851, -1
  %reuse.cast131 = ptrtoint i32* %845 to i32
  call void @getReuseDistance(i32 %reuse.cast131)
  store i32 %852, i32* %845, align 4, !tbaa !21
  br label %_ZN9__gnu_cxxL27__exchange_and_add_dispatchEPii.exit.i.i.i132

_ZN9__gnu_cxxL27__exchange_and_add_dispatchEPii.exit.i.i.i132: ; preds = %850, %846
  %.0.i.i.i.i131 = phi i32 [ %849, %846 ], [ %851, %850 ]
  %853 = icmp slt i32 %.0.i.i.i.i131, 1
  br i1 %853, label %854, label %855

; <label>:854                                     ; preds = %_ZN9__gnu_cxxL27__exchange_and_add_dispatchEPii.exit.i.i.i132
  call void @_ZNSs4_Rep10_M_destroyERKSaIcE(%"struct.std::basic_string<char, std::char_traits<char>, std::allocator<char> >::_Rep"* %841, %"class.std::allocator"* dereferenceable(1) %194) #1
  br label %855

; <label>:855                                     ; preds = %854, %_ZN9__gnu_cxxL27__exchange_and_add_dispatchEPii.exit.i.i.i132, %836
  call void @llvm.lifetime.end(i64 1, i8* %837)
  invoke void @_ZNSsC1EPKcRKSaIcE(%"class.std::basic_string"* %249, i8* getelementptr inbounds ([11 x i8]* @.str15, i32 0, i32 0), %"class.std::allocator"* dereferenceable(1) %250)
          to label %856 unwind label %2109

; <label>:856                                     ; preds = %855
  %857 = invoke %class.YAML_Element* @_ZN12YAML_Element3getERKSs(%class.YAML_Element* %643, %"class.std::basic_string"* dereferenceable(4) %249)
          to label %858 unwind label %2113

; <label>:858                                     ; preds = %856
  invoke void @_ZNSsC1EPKcRKSaIcE(%"class.std::basic_string"* %251, i8* getelementptr inbounds ([3 x i8]* @.str16, i32 0, i32 0), %"class.std::allocator"* dereferenceable(1) %252)
          to label %859 unwind label %2117

; <label>:859                                     ; preds = %858
  %860 = invoke %class.YAML_Element* @_ZN12YAML_Element3addERKSsi(%class.YAML_Element* %857, %"class.std::basic_string"* dereferenceable(4) %251, i32 %nx.0)
          to label %861 unwind label %2121

; <label>:861                                     ; preds = %859
  %862 = getelementptr inbounds %"class.std::allocator"* %192, i32 0, i32 0
  call void @llvm.lifetime.start(i64 1, i8* %862)
  %863 = getelementptr inbounds %"class.std::basic_string"* %251, i32 0, i32 0, i32 0
  %reuse.cast132 = ptrtoint i8** %863 to i32
  call void @getReuseDistance(i32 %reuse.cast132)
  %864 = load i8** %863, align 4, !tbaa !28
  %865 = getelementptr inbounds i8* %864, i32 -12
  %866 = bitcast i8* %865 to %"struct.std::basic_string<char, std::char_traits<char>, std::allocator<char> >::_Rep"*
  %867 = icmp eq i8* %865, bitcast ([0 x i32]* @_ZNSs4_Rep20_S_empty_rep_storageE to i8*)
  br i1 %867, label %880, label %868, !prof !31

; <label>:868                                     ; preds = %861
  %869 = getelementptr inbounds i8* %864, i32 -4
  %870 = bitcast i8* %869 to i32*
  br i1 icmp ne (i8* bitcast (i32 (i32*, void (i8*)*)* @__pthread_key_create to i8*), i8* null), label %871, label %875

; <label>:871                                     ; preds = %868
  %872 = bitcast i32* %191 to i8*
  call void @llvm.lifetime.start(i64 4, i8* %872)
  %873 = atomicrmw volatile add i32* %870, i32 -1 acq_rel
  %reuse.cast133 = ptrtoint i32* %191 to i32
  call void @getReuseDistance(i32 %reuse.cast133)
  store i32 %873, i32* %191, align 4
  %reuse.cast134 = ptrtoint i32* %191 to i32
  call void @getReuseDistance(i32 %reuse.cast134)
  %874 = load volatile i32* %191, align 4
  call void @llvm.lifetime.end(i64 4, i8* %872)
  br label %_ZN9__gnu_cxxL27__exchange_and_add_dispatchEPii.exit.i.i.i136

; <label>:875                                     ; preds = %868
  %reuse.cast135 = ptrtoint i32* %870 to i32
  call void @getReuseDistance(i32 %reuse.cast135)
  %876 = load i32* %870, align 4, !tbaa !21
  %877 = add nsw i32 %876, -1
  %reuse.cast136 = ptrtoint i32* %870 to i32
  call void @getReuseDistance(i32 %reuse.cast136)
  store i32 %877, i32* %870, align 4, !tbaa !21
  br label %_ZN9__gnu_cxxL27__exchange_and_add_dispatchEPii.exit.i.i.i136

_ZN9__gnu_cxxL27__exchange_and_add_dispatchEPii.exit.i.i.i136: ; preds = %875, %871
  %.0.i.i.i.i135 = phi i32 [ %874, %871 ], [ %876, %875 ]
  %878 = icmp slt i32 %.0.i.i.i.i135, 1
  br i1 %878, label %879, label %880

; <label>:879                                     ; preds = %_ZN9__gnu_cxxL27__exchange_and_add_dispatchEPii.exit.i.i.i136
  call void @_ZNSs4_Rep10_M_destroyERKSaIcE(%"struct.std::basic_string<char, std::char_traits<char>, std::allocator<char> >::_Rep"* %866, %"class.std::allocator"* dereferenceable(1) %192) #1
  br label %880

; <label>:880                                     ; preds = %879, %_ZN9__gnu_cxxL27__exchange_and_add_dispatchEPii.exit.i.i.i136, %861
  call void @llvm.lifetime.end(i64 1, i8* %862)
  %881 = getelementptr inbounds %"class.std::allocator"* %190, i32 0, i32 0
  call void @llvm.lifetime.start(i64 1, i8* %881)
  %882 = getelementptr inbounds %"class.std::basic_string"* %249, i32 0, i32 0, i32 0
  %reuse.cast137 = ptrtoint i8** %882 to i32
  call void @getReuseDistance(i32 %reuse.cast137)
  %883 = load i8** %882, align 4, !tbaa !28
  %884 = getelementptr inbounds i8* %883, i32 -12
  %885 = bitcast i8* %884 to %"struct.std::basic_string<char, std::char_traits<char>, std::allocator<char> >::_Rep"*
  %886 = icmp eq i8* %884, bitcast ([0 x i32]* @_ZNSs4_Rep20_S_empty_rep_storageE to i8*)
  br i1 %886, label %899, label %887, !prof !31

; <label>:887                                     ; preds = %880
  %888 = getelementptr inbounds i8* %883, i32 -4
  %889 = bitcast i8* %888 to i32*
  br i1 icmp ne (i8* bitcast (i32 (i32*, void (i8*)*)* @__pthread_key_create to i8*), i8* null), label %890, label %894

; <label>:890                                     ; preds = %887
  %891 = bitcast i32* %189 to i8*
  call void @llvm.lifetime.start(i64 4, i8* %891)
  %892 = atomicrmw volatile add i32* %889, i32 -1 acq_rel
  %reuse.cast138 = ptrtoint i32* %189 to i32
  call void @getReuseDistance(i32 %reuse.cast138)
  store i32 %892, i32* %189, align 4
  %reuse.cast139 = ptrtoint i32* %189 to i32
  call void @getReuseDistance(i32 %reuse.cast139)
  %893 = load volatile i32* %189, align 4
  call void @llvm.lifetime.end(i64 4, i8* %891)
  br label %_ZN9__gnu_cxxL27__exchange_and_add_dispatchEPii.exit.i.i.i139

; <label>:894                                     ; preds = %887
  %reuse.cast140 = ptrtoint i32* %889 to i32
  call void @getReuseDistance(i32 %reuse.cast140)
  %895 = load i32* %889, align 4, !tbaa !21
  %896 = add nsw i32 %895, -1
  %reuse.cast141 = ptrtoint i32* %889 to i32
  call void @getReuseDistance(i32 %reuse.cast141)
  store i32 %896, i32* %889, align 4, !tbaa !21
  br label %_ZN9__gnu_cxxL27__exchange_and_add_dispatchEPii.exit.i.i.i139

_ZN9__gnu_cxxL27__exchange_and_add_dispatchEPii.exit.i.i.i139: ; preds = %894, %890
  %.0.i.i.i.i138 = phi i32 [ %893, %890 ], [ %895, %894 ]
  %897 = icmp slt i32 %.0.i.i.i.i138, 1
  br i1 %897, label %898, label %899

; <label>:898                                     ; preds = %_ZN9__gnu_cxxL27__exchange_and_add_dispatchEPii.exit.i.i.i139
  call void @_ZNSs4_Rep10_M_destroyERKSaIcE(%"struct.std::basic_string<char, std::char_traits<char>, std::allocator<char> >::_Rep"* %885, %"class.std::allocator"* dereferenceable(1) %190) #1
  br label %899

; <label>:899                                     ; preds = %898, %_ZN9__gnu_cxxL27__exchange_and_add_dispatchEPii.exit.i.i.i139, %880
  call void @llvm.lifetime.end(i64 1, i8* %881)
  invoke void @_ZNSsC1EPKcRKSaIcE(%"class.std::basic_string"* %253, i8* getelementptr inbounds ([11 x i8]* @.str15, i32 0, i32 0), %"class.std::allocator"* dereferenceable(1) %254)
          to label %900 unwind label %2161

; <label>:900                                     ; preds = %899
  %901 = invoke %class.YAML_Element* @_ZN12YAML_Element3getERKSs(%class.YAML_Element* %643, %"class.std::basic_string"* dereferenceable(4) %253)
          to label %902 unwind label %2165

; <label>:902                                     ; preds = %900
  invoke void @_ZNSsC1EPKcRKSaIcE(%"class.std::basic_string"* %255, i8* getelementptr inbounds ([3 x i8]* @.str17, i32 0, i32 0), %"class.std::allocator"* dereferenceable(1) %256)
          to label %903 unwind label %2169

; <label>:903                                     ; preds = %902
  %904 = invoke %class.YAML_Element* @_ZN12YAML_Element3addERKSsi(%class.YAML_Element* %901, %"class.std::basic_string"* dereferenceable(4) %255, i32 %ny.0)
          to label %905 unwind label %2173

; <label>:905                                     ; preds = %903
  %906 = getelementptr inbounds %"class.std::allocator"* %188, i32 0, i32 0
  call void @llvm.lifetime.start(i64 1, i8* %906)
  %907 = getelementptr inbounds %"class.std::basic_string"* %255, i32 0, i32 0, i32 0
  %reuse.cast142 = ptrtoint i8** %907 to i32
  call void @getReuseDistance(i32 %reuse.cast142)
  %908 = load i8** %907, align 4, !tbaa !28
  %909 = getelementptr inbounds i8* %908, i32 -12
  %910 = bitcast i8* %909 to %"struct.std::basic_string<char, std::char_traits<char>, std::allocator<char> >::_Rep"*
  %911 = icmp eq i8* %909, bitcast ([0 x i32]* @_ZNSs4_Rep20_S_empty_rep_storageE to i8*)
  br i1 %911, label %924, label %912, !prof !31

; <label>:912                                     ; preds = %905
  %913 = getelementptr inbounds i8* %908, i32 -4
  %914 = bitcast i8* %913 to i32*
  br i1 icmp ne (i8* bitcast (i32 (i32*, void (i8*)*)* @__pthread_key_create to i8*), i8* null), label %915, label %919

; <label>:915                                     ; preds = %912
  %916 = bitcast i32* %187 to i8*
  call void @llvm.lifetime.start(i64 4, i8* %916)
  %917 = atomicrmw volatile add i32* %914, i32 -1 acq_rel
  %reuse.cast143 = ptrtoint i32* %187 to i32
  call void @getReuseDistance(i32 %reuse.cast143)
  store i32 %917, i32* %187, align 4
  %reuse.cast144 = ptrtoint i32* %187 to i32
  call void @getReuseDistance(i32 %reuse.cast144)
  %918 = load volatile i32* %187, align 4
  call void @llvm.lifetime.end(i64 4, i8* %916)
  br label %_ZN9__gnu_cxxL27__exchange_and_add_dispatchEPii.exit.i.i.i144

; <label>:919                                     ; preds = %912
  %reuse.cast145 = ptrtoint i32* %914 to i32
  call void @getReuseDistance(i32 %reuse.cast145)
  %920 = load i32* %914, align 4, !tbaa !21
  %921 = add nsw i32 %920, -1
  %reuse.cast146 = ptrtoint i32* %914 to i32
  call void @getReuseDistance(i32 %reuse.cast146)
  store i32 %921, i32* %914, align 4, !tbaa !21
  br label %_ZN9__gnu_cxxL27__exchange_and_add_dispatchEPii.exit.i.i.i144

_ZN9__gnu_cxxL27__exchange_and_add_dispatchEPii.exit.i.i.i144: ; preds = %919, %915
  %.0.i.i.i.i143 = phi i32 [ %918, %915 ], [ %920, %919 ]
  %922 = icmp slt i32 %.0.i.i.i.i143, 1
  br i1 %922, label %923, label %924

; <label>:923                                     ; preds = %_ZN9__gnu_cxxL27__exchange_and_add_dispatchEPii.exit.i.i.i144
  call void @_ZNSs4_Rep10_M_destroyERKSaIcE(%"struct.std::basic_string<char, std::char_traits<char>, std::allocator<char> >::_Rep"* %910, %"class.std::allocator"* dereferenceable(1) %188) #1
  br label %924

; <label>:924                                     ; preds = %923, %_ZN9__gnu_cxxL27__exchange_and_add_dispatchEPii.exit.i.i.i144, %905
  call void @llvm.lifetime.end(i64 1, i8* %906)
  %925 = getelementptr inbounds %"class.std::allocator"* %186, i32 0, i32 0
  call void @llvm.lifetime.start(i64 1, i8* %925)
  %926 = getelementptr inbounds %"class.std::basic_string"* %253, i32 0, i32 0, i32 0
  %reuse.cast147 = ptrtoint i8** %926 to i32
  call void @getReuseDistance(i32 %reuse.cast147)
  %927 = load i8** %926, align 4, !tbaa !28
  %928 = getelementptr inbounds i8* %927, i32 -12
  %929 = bitcast i8* %928 to %"struct.std::basic_string<char, std::char_traits<char>, std::allocator<char> >::_Rep"*
  %930 = icmp eq i8* %928, bitcast ([0 x i32]* @_ZNSs4_Rep20_S_empty_rep_storageE to i8*)
  br i1 %930, label %943, label %931, !prof !31

; <label>:931                                     ; preds = %924
  %932 = getelementptr inbounds i8* %927, i32 -4
  %933 = bitcast i8* %932 to i32*
  br i1 icmp ne (i8* bitcast (i32 (i32*, void (i8*)*)* @__pthread_key_create to i8*), i8* null), label %934, label %938

; <label>:934                                     ; preds = %931
  %935 = bitcast i32* %185 to i8*
  call void @llvm.lifetime.start(i64 4, i8* %935)
  %936 = atomicrmw volatile add i32* %933, i32 -1 acq_rel
  %reuse.cast148 = ptrtoint i32* %185 to i32
  call void @getReuseDistance(i32 %reuse.cast148)
  store i32 %936, i32* %185, align 4
  %reuse.cast149 = ptrtoint i32* %185 to i32
  call void @getReuseDistance(i32 %reuse.cast149)
  %937 = load volatile i32* %185, align 4
  call void @llvm.lifetime.end(i64 4, i8* %935)
  br label %_ZN9__gnu_cxxL27__exchange_and_add_dispatchEPii.exit.i.i.i147

; <label>:938                                     ; preds = %931
  %reuse.cast150 = ptrtoint i32* %933 to i32
  call void @getReuseDistance(i32 %reuse.cast150)
  %939 = load i32* %933, align 4, !tbaa !21
  %940 = add nsw i32 %939, -1
  %reuse.cast151 = ptrtoint i32* %933 to i32
  call void @getReuseDistance(i32 %reuse.cast151)
  store i32 %940, i32* %933, align 4, !tbaa !21
  br label %_ZN9__gnu_cxxL27__exchange_and_add_dispatchEPii.exit.i.i.i147

_ZN9__gnu_cxxL27__exchange_and_add_dispatchEPii.exit.i.i.i147: ; preds = %938, %934
  %.0.i.i.i.i146 = phi i32 [ %937, %934 ], [ %939, %938 ]
  %941 = icmp slt i32 %.0.i.i.i.i146, 1
  br i1 %941, label %942, label %943

; <label>:942                                     ; preds = %_ZN9__gnu_cxxL27__exchange_and_add_dispatchEPii.exit.i.i.i147
  call void @_ZNSs4_Rep10_M_destroyERKSaIcE(%"struct.std::basic_string<char, std::char_traits<char>, std::allocator<char> >::_Rep"* %929, %"class.std::allocator"* dereferenceable(1) %186) #1
  br label %943

; <label>:943                                     ; preds = %942, %_ZN9__gnu_cxxL27__exchange_and_add_dispatchEPii.exit.i.i.i147, %924
  call void @llvm.lifetime.end(i64 1, i8* %925)
  invoke void @_ZNSsC1EPKcRKSaIcE(%"class.std::basic_string"* %257, i8* getelementptr inbounds ([11 x i8]* @.str15, i32 0, i32 0), %"class.std::allocator"* dereferenceable(1) %258)
          to label %944 unwind label %2213

; <label>:944                                     ; preds = %943
  %945 = invoke %class.YAML_Element* @_ZN12YAML_Element3getERKSs(%class.YAML_Element* %643, %"class.std::basic_string"* dereferenceable(4) %257)
          to label %946 unwind label %2217

; <label>:946                                     ; preds = %944
  invoke void @_ZNSsC1EPKcRKSaIcE(%"class.std::basic_string"* %259, i8* getelementptr inbounds ([3 x i8]* @.str18, i32 0, i32 0), %"class.std::allocator"* dereferenceable(1) %260)
          to label %947 unwind label %2221

; <label>:947                                     ; preds = %946
  %948 = invoke %class.YAML_Element* @_ZN12YAML_Element3addERKSsi(%class.YAML_Element* %945, %"class.std::basic_string"* dereferenceable(4) %259, i32 %nz.0)
          to label %949 unwind label %2225

; <label>:949                                     ; preds = %947
  %950 = getelementptr inbounds %"class.std::allocator"* %184, i32 0, i32 0
  call void @llvm.lifetime.start(i64 1, i8* %950)
  %951 = getelementptr inbounds %"class.std::basic_string"* %259, i32 0, i32 0, i32 0
  %reuse.cast152 = ptrtoint i8** %951 to i32
  call void @getReuseDistance(i32 %reuse.cast152)
  %952 = load i8** %951, align 4, !tbaa !28
  %953 = getelementptr inbounds i8* %952, i32 -12
  %954 = bitcast i8* %953 to %"struct.std::basic_string<char, std::char_traits<char>, std::allocator<char> >::_Rep"*
  %955 = icmp eq i8* %953, bitcast ([0 x i32]* @_ZNSs4_Rep20_S_empty_rep_storageE to i8*)
  br i1 %955, label %968, label %956, !prof !31

; <label>:956                                     ; preds = %949
  %957 = getelementptr inbounds i8* %952, i32 -4
  %958 = bitcast i8* %957 to i32*
  br i1 icmp ne (i8* bitcast (i32 (i32*, void (i8*)*)* @__pthread_key_create to i8*), i8* null), label %959, label %963

; <label>:959                                     ; preds = %956
  %960 = bitcast i32* %183 to i8*
  call void @llvm.lifetime.start(i64 4, i8* %960)
  %961 = atomicrmw volatile add i32* %958, i32 -1 acq_rel
  %reuse.cast153 = ptrtoint i32* %183 to i32
  call void @getReuseDistance(i32 %reuse.cast153)
  store i32 %961, i32* %183, align 4
  %reuse.cast154 = ptrtoint i32* %183 to i32
  call void @getReuseDistance(i32 %reuse.cast154)
  %962 = load volatile i32* %183, align 4
  call void @llvm.lifetime.end(i64 4, i8* %960)
  br label %_ZN9__gnu_cxxL27__exchange_and_add_dispatchEPii.exit.i.i.i151

; <label>:963                                     ; preds = %956
  %reuse.cast155 = ptrtoint i32* %958 to i32
  call void @getReuseDistance(i32 %reuse.cast155)
  %964 = load i32* %958, align 4, !tbaa !21
  %965 = add nsw i32 %964, -1
  %reuse.cast156 = ptrtoint i32* %958 to i32
  call void @getReuseDistance(i32 %reuse.cast156)
  store i32 %965, i32* %958, align 4, !tbaa !21
  br label %_ZN9__gnu_cxxL27__exchange_and_add_dispatchEPii.exit.i.i.i151

_ZN9__gnu_cxxL27__exchange_and_add_dispatchEPii.exit.i.i.i151: ; preds = %963, %959
  %.0.i.i.i.i150 = phi i32 [ %962, %959 ], [ %964, %963 ]
  %966 = icmp slt i32 %.0.i.i.i.i150, 1
  br i1 %966, label %967, label %968

; <label>:967                                     ; preds = %_ZN9__gnu_cxxL27__exchange_and_add_dispatchEPii.exit.i.i.i151
  call void @_ZNSs4_Rep10_M_destroyERKSaIcE(%"struct.std::basic_string<char, std::char_traits<char>, std::allocator<char> >::_Rep"* %954, %"class.std::allocator"* dereferenceable(1) %184) #1
  br label %968

; <label>:968                                     ; preds = %967, %_ZN9__gnu_cxxL27__exchange_and_add_dispatchEPii.exit.i.i.i151, %949
  call void @llvm.lifetime.end(i64 1, i8* %950)
  %969 = getelementptr inbounds %"class.std::allocator"* %180, i32 0, i32 0
  call void @llvm.lifetime.start(i64 1, i8* %969)
  %970 = getelementptr inbounds %"class.std::basic_string"* %257, i32 0, i32 0, i32 0
  %reuse.cast157 = ptrtoint i8** %970 to i32
  call void @getReuseDistance(i32 %reuse.cast157)
  %971 = load i8** %970, align 4, !tbaa !28
  %972 = getelementptr inbounds i8* %971, i32 -12
  %973 = bitcast i8* %972 to %"struct.std::basic_string<char, std::char_traits<char>, std::allocator<char> >::_Rep"*
  %974 = icmp eq i8* %972, bitcast ([0 x i32]* @_ZNSs4_Rep20_S_empty_rep_storageE to i8*)
  br i1 %974, label %987, label %975, !prof !31

; <label>:975                                     ; preds = %968
  %976 = getelementptr inbounds i8* %971, i32 -4
  %977 = bitcast i8* %976 to i32*
  br i1 icmp ne (i8* bitcast (i32 (i32*, void (i8*)*)* @__pthread_key_create to i8*), i8* null), label %978, label %982

; <label>:978                                     ; preds = %975
  %979 = bitcast i32* %179 to i8*
  call void @llvm.lifetime.start(i64 4, i8* %979)
  %980 = atomicrmw volatile add i32* %977, i32 -1 acq_rel
  %reuse.cast158 = ptrtoint i32* %179 to i32
  call void @getReuseDistance(i32 %reuse.cast158)
  store i32 %980, i32* %179, align 4
  %reuse.cast159 = ptrtoint i32* %179 to i32
  call void @getReuseDistance(i32 %reuse.cast159)
  %981 = load volatile i32* %179, align 4
  call void @llvm.lifetime.end(i64 4, i8* %979)
  br label %_ZN9__gnu_cxxL27__exchange_and_add_dispatchEPii.exit.i.i.i157

; <label>:982                                     ; preds = %975
  %reuse.cast160 = ptrtoint i32* %977 to i32
  call void @getReuseDistance(i32 %reuse.cast160)
  %983 = load i32* %977, align 4, !tbaa !21
  %984 = add nsw i32 %983, -1
  %reuse.cast161 = ptrtoint i32* %977 to i32
  call void @getReuseDistance(i32 %reuse.cast161)
  store i32 %984, i32* %977, align 4, !tbaa !21
  br label %_ZN9__gnu_cxxL27__exchange_and_add_dispatchEPii.exit.i.i.i157

_ZN9__gnu_cxxL27__exchange_and_add_dispatchEPii.exit.i.i.i157: ; preds = %982, %978
  %.0.i.i.i.i156 = phi i32 [ %981, %978 ], [ %983, %982 ]
  %985 = icmp slt i32 %.0.i.i.i.i156, 1
  br i1 %985, label %986, label %987

; <label>:986                                     ; preds = %_ZN9__gnu_cxxL27__exchange_and_add_dispatchEPii.exit.i.i.i157
  call void @_ZNSs4_Rep10_M_destroyERKSaIcE(%"struct.std::basic_string<char, std::char_traits<char>, std::allocator<char> >::_Rep"* %973, %"class.std::allocator"* dereferenceable(1) %180) #1
  br label %987

; <label>:987                                     ; preds = %986, %_ZN9__gnu_cxxL27__exchange_and_add_dispatchEPii.exit.i.i.i157, %968
  call void @llvm.lifetime.end(i64 1, i8* %969)
  invoke void @_ZNSsC1EPKcRKSaIcE(%"class.std::basic_string"* %261, i8* getelementptr inbounds ([23 x i8]* @.str19, i32 0, i32 0), %"class.std::allocator"* dereferenceable(1) %262)
          to label %988 unwind label %2265

; <label>:988                                     ; preds = %987
  %reuse.cast162 = ptrtoint i32* %niters to i32
  call void @getReuseDistance(i32 %reuse.cast162)
  %989 = load i32* %niters, align 4, !tbaa !21
  %990 = invoke %class.YAML_Element* @_ZN12YAML_Element3addERKSsi(%class.YAML_Element* %643, %"class.std::basic_string"* dereferenceable(4) %261, i32 %989)
          to label %991 unwind label %2269

; <label>:991                                     ; preds = %988
  %992 = getelementptr inbounds %"class.std::allocator"* %174, i32 0, i32 0
  call void @llvm.lifetime.start(i64 1, i8* %992)
  %993 = getelementptr inbounds %"class.std::basic_string"* %261, i32 0, i32 0, i32 0
  %reuse.cast163 = ptrtoint i8** %993 to i32
  call void @getReuseDistance(i32 %reuse.cast163)
  %994 = load i8** %993, align 4, !tbaa !28
  %995 = getelementptr inbounds i8* %994, i32 -12
  %996 = bitcast i8* %995 to %"struct.std::basic_string<char, std::char_traits<char>, std::allocator<char> >::_Rep"*
  %997 = icmp eq i8* %995, bitcast ([0 x i32]* @_ZNSs4_Rep20_S_empty_rep_storageE to i8*)
  br i1 %997, label %1010, label %998, !prof !31

; <label>:998                                     ; preds = %991
  %999 = getelementptr inbounds i8* %994, i32 -4
  %1000 = bitcast i8* %999 to i32*
  br i1 icmp ne (i8* bitcast (i32 (i32*, void (i8*)*)* @__pthread_key_create to i8*), i8* null), label %1001, label %1005

; <label>:1001                                    ; preds = %998
  %1002 = bitcast i32* %173 to i8*
  call void @llvm.lifetime.start(i64 4, i8* %1002)
  %1003 = atomicrmw volatile add i32* %1000, i32 -1 acq_rel
  %reuse.cast164 = ptrtoint i32* %173 to i32
  call void @getReuseDistance(i32 %reuse.cast164)
  store i32 %1003, i32* %173, align 4
  %reuse.cast165 = ptrtoint i32* %173 to i32
  call void @getReuseDistance(i32 %reuse.cast165)
  %1004 = load volatile i32* %173, align 4
  call void @llvm.lifetime.end(i64 4, i8* %1002)
  br label %_ZN9__gnu_cxxL27__exchange_and_add_dispatchEPii.exit.i.i.i166

; <label>:1005                                    ; preds = %998
  %reuse.cast166 = ptrtoint i32* %1000 to i32
  call void @getReuseDistance(i32 %reuse.cast166)
  %1006 = load i32* %1000, align 4, !tbaa !21
  %1007 = add nsw i32 %1006, -1
  %reuse.cast167 = ptrtoint i32* %1000 to i32
  call void @getReuseDistance(i32 %reuse.cast167)
  store i32 %1007, i32* %1000, align 4, !tbaa !21
  br label %_ZN9__gnu_cxxL27__exchange_and_add_dispatchEPii.exit.i.i.i166

_ZN9__gnu_cxxL27__exchange_and_add_dispatchEPii.exit.i.i.i166: ; preds = %1005, %1001
  %.0.i.i.i.i165 = phi i32 [ %1004, %1001 ], [ %1006, %1005 ]
  %1008 = icmp slt i32 %.0.i.i.i.i165, 1
  br i1 %1008, label %1009, label %1010

; <label>:1009                                    ; preds = %_ZN9__gnu_cxxL27__exchange_and_add_dispatchEPii.exit.i.i.i166
  call void @_ZNSs4_Rep10_M_destroyERKSaIcE(%"struct.std::basic_string<char, std::char_traits<char>, std::allocator<char> >::_Rep"* %996, %"class.std::allocator"* dereferenceable(1) %174) #1
  br label %1010

; <label>:1010                                    ; preds = %1009, %_ZN9__gnu_cxxL27__exchange_and_add_dispatchEPii.exit.i.i.i166, %991
  call void @llvm.lifetime.end(i64 1, i8* %992)
  invoke void @_ZNSsC1EPKcRKSaIcE(%"class.std::basic_string"* %263, i8* getelementptr inbounds ([17 x i8]* @.str20, i32 0, i32 0), %"class.std::allocator"* dereferenceable(1) %264)
          to label %1011 unwind label %2291

; <label>:1011                                    ; preds = %1010
  %reuse.cast168 = ptrtoint double* %normr to i32
  call void @getReuseDistance(i32 %reuse.cast168)
  %1012 = load double* %normr, align 8, !tbaa !22
  %1013 = invoke %class.YAML_Element* @_ZN12YAML_Element3addERKSsd(%class.YAML_Element* %643, %"class.std::basic_string"* dereferenceable(4) %263, double %1012)
          to label %1014 unwind label %2295

; <label>:1014                                    ; preds = %1011
  %1015 = getelementptr inbounds %"class.std::allocator"* %168, i32 0, i32 0
  call void @llvm.lifetime.start(i64 1, i8* %1015)
  %1016 = getelementptr inbounds %"class.std::basic_string"* %263, i32 0, i32 0, i32 0
  %reuse.cast169 = ptrtoint i8** %1016 to i32
  call void @getReuseDistance(i32 %reuse.cast169)
  %1017 = load i8** %1016, align 4, !tbaa !28
  %1018 = getelementptr inbounds i8* %1017, i32 -12
  %1019 = bitcast i8* %1018 to %"struct.std::basic_string<char, std::char_traits<char>, std::allocator<char> >::_Rep"*
  %1020 = icmp eq i8* %1018, bitcast ([0 x i32]* @_ZNSs4_Rep20_S_empty_rep_storageE to i8*)
  br i1 %1020, label %1033, label %1021, !prof !31

; <label>:1021                                    ; preds = %1014
  %1022 = getelementptr inbounds i8* %1017, i32 -4
  %1023 = bitcast i8* %1022 to i32*
  br i1 icmp ne (i8* bitcast (i32 (i32*, void (i8*)*)* @__pthread_key_create to i8*), i8* null), label %1024, label %1028

; <label>:1024                                    ; preds = %1021
  %1025 = bitcast i32* %167 to i8*
  call void @llvm.lifetime.start(i64 4, i8* %1025)
  %1026 = atomicrmw volatile add i32* %1023, i32 -1 acq_rel
  %reuse.cast170 = ptrtoint i32* %167 to i32
  call void @getReuseDistance(i32 %reuse.cast170)
  store i32 %1026, i32* %167, align 4
  %reuse.cast171 = ptrtoint i32* %167 to i32
  call void @getReuseDistance(i32 %reuse.cast171)
  %1027 = load volatile i32* %167, align 4
  call void @llvm.lifetime.end(i64 4, i8* %1025)
  br label %_ZN9__gnu_cxxL27__exchange_and_add_dispatchEPii.exit.i.i.i175

; <label>:1028                                    ; preds = %1021
  %reuse.cast172 = ptrtoint i32* %1023 to i32
  call void @getReuseDistance(i32 %reuse.cast172)
  %1029 = load i32* %1023, align 4, !tbaa !21
  %1030 = add nsw i32 %1029, -1
  %reuse.cast173 = ptrtoint i32* %1023 to i32
  call void @getReuseDistance(i32 %reuse.cast173)
  store i32 %1030, i32* %1023, align 4, !tbaa !21
  br label %_ZN9__gnu_cxxL27__exchange_and_add_dispatchEPii.exit.i.i.i175

_ZN9__gnu_cxxL27__exchange_and_add_dispatchEPii.exit.i.i.i175: ; preds = %1028, %1024
  %.0.i.i.i.i174 = phi i32 [ %1027, %1024 ], [ %1029, %1028 ]
  %1031 = icmp slt i32 %.0.i.i.i.i174, 1
  br i1 %1031, label %1032, label %1033

; <label>:1032                                    ; preds = %_ZN9__gnu_cxxL27__exchange_and_add_dispatchEPii.exit.i.i.i175
  call void @_ZNSs4_Rep10_M_destroyERKSaIcE(%"struct.std::basic_string<char, std::char_traits<char>, std::allocator<char> >::_Rep"* %1019, %"class.std::allocator"* dereferenceable(1) %168) #1
  br label %1033

; <label>:1033                                    ; preds = %1032, %_ZN9__gnu_cxxL27__exchange_and_add_dispatchEPii.exit.i.i.i175, %1014
  call void @llvm.lifetime.end(i64 1, i8* %1015)
  invoke void @_ZNSsC1EPKcRKSaIcE(%"class.std::basic_string"* %265, i8* getelementptr inbounds ([58 x i8]* @.str21, i32 0, i32 0), %"class.std::allocator"* dereferenceable(1) %266)
          to label %1034 unwind label %2317

; <label>:1034                                    ; preds = %1033
  invoke void @_ZNSsC1EPKcRKSaIcE(%"class.std::basic_string"* %267, i8* getelementptr inbounds ([1 x i8]* @.str11, i32 0, i32 0), %"class.std::allocator"* dereferenceable(1) %268)
          to label %1035 unwind label %2321

; <label>:1035                                    ; preds = %1034
  %1036 = invoke %class.YAML_Element* @_ZN12YAML_Element3addERKSsS1_(%class.YAML_Element* %643, %"class.std::basic_string"* dereferenceable(4) %265, %"class.std::basic_string"* dereferenceable(4) %267)
          to label %1037 unwind label %2325

; <label>:1037                                    ; preds = %1035
  %1038 = getelementptr inbounds %"class.std::allocator"* %160, i32 0, i32 0
  call void @llvm.lifetime.start(i64 1, i8* %1038)
  %1039 = getelementptr inbounds %"class.std::basic_string"* %267, i32 0, i32 0, i32 0
  %reuse.cast174 = ptrtoint i8** %1039 to i32
  call void @getReuseDistance(i32 %reuse.cast174)
  %1040 = load i8** %1039, align 4, !tbaa !28
  %1041 = getelementptr inbounds i8* %1040, i32 -12
  %1042 = bitcast i8* %1041 to %"struct.std::basic_string<char, std::char_traits<char>, std::allocator<char> >::_Rep"*
  %1043 = icmp eq i8* %1041, bitcast ([0 x i32]* @_ZNSs4_Rep20_S_empty_rep_storageE to i8*)
  br i1 %1043, label %1056, label %1044, !prof !31

; <label>:1044                                    ; preds = %1037
  %1045 = getelementptr inbounds i8* %1040, i32 -4
  %1046 = bitcast i8* %1045 to i32*
  br i1 icmp ne (i8* bitcast (i32 (i32*, void (i8*)*)* @__pthread_key_create to i8*), i8* null), label %1047, label %1051

; <label>:1047                                    ; preds = %1044
  %1048 = bitcast i32* %159 to i8*
  call void @llvm.lifetime.start(i64 4, i8* %1048)
  %1049 = atomicrmw volatile add i32* %1046, i32 -1 acq_rel
  %reuse.cast175 = ptrtoint i32* %159 to i32
  call void @getReuseDistance(i32 %reuse.cast175)
  store i32 %1049, i32* %159, align 4
  %reuse.cast176 = ptrtoint i32* %159 to i32
  call void @getReuseDistance(i32 %reuse.cast176)
  %1050 = load volatile i32* %159, align 4
  call void @llvm.lifetime.end(i64 4, i8* %1048)
  br label %_ZN9__gnu_cxxL27__exchange_and_add_dispatchEPii.exit.i.i.i187

; <label>:1051                                    ; preds = %1044
  %reuse.cast177 = ptrtoint i32* %1046 to i32
  call void @getReuseDistance(i32 %reuse.cast177)
  %1052 = load i32* %1046, align 4, !tbaa !21
  %1053 = add nsw i32 %1052, -1
  %reuse.cast178 = ptrtoint i32* %1046 to i32
  call void @getReuseDistance(i32 %reuse.cast178)
  store i32 %1053, i32* %1046, align 4, !tbaa !21
  br label %_ZN9__gnu_cxxL27__exchange_and_add_dispatchEPii.exit.i.i.i187

_ZN9__gnu_cxxL27__exchange_and_add_dispatchEPii.exit.i.i.i187: ; preds = %1051, %1047
  %.0.i.i.i.i186 = phi i32 [ %1050, %1047 ], [ %1052, %1051 ]
  %1054 = icmp slt i32 %.0.i.i.i.i186, 1
  br i1 %1054, label %1055, label %1056

; <label>:1055                                    ; preds = %_ZN9__gnu_cxxL27__exchange_and_add_dispatchEPii.exit.i.i.i187
  call void @_ZNSs4_Rep10_M_destroyERKSaIcE(%"struct.std::basic_string<char, std::char_traits<char>, std::allocator<char> >::_Rep"* %1042, %"class.std::allocator"* dereferenceable(1) %160) #1
  br label %1056

; <label>:1056                                    ; preds = %1055, %_ZN9__gnu_cxxL27__exchange_and_add_dispatchEPii.exit.i.i.i187, %1037
  call void @llvm.lifetime.end(i64 1, i8* %1038)
  %1057 = getelementptr inbounds %"class.std::allocator"* %156, i32 0, i32 0
  call void @llvm.lifetime.start(i64 1, i8* %1057)
  %1058 = getelementptr inbounds %"class.std::basic_string"* %265, i32 0, i32 0, i32 0
  %reuse.cast179 = ptrtoint i8** %1058 to i32
  call void @getReuseDistance(i32 %reuse.cast179)
  %1059 = load i8** %1058, align 4, !tbaa !28
  %1060 = getelementptr inbounds i8* %1059, i32 -12
  %1061 = bitcast i8* %1060 to %"struct.std::basic_string<char, std::char_traits<char>, std::allocator<char> >::_Rep"*
  %1062 = icmp eq i8* %1060, bitcast ([0 x i32]* @_ZNSs4_Rep20_S_empty_rep_storageE to i8*)
  br i1 %1062, label %1075, label %1063, !prof !31

; <label>:1063                                    ; preds = %1056
  %1064 = getelementptr inbounds i8* %1059, i32 -4
  %1065 = bitcast i8* %1064 to i32*
  br i1 icmp ne (i8* bitcast (i32 (i32*, void (i8*)*)* @__pthread_key_create to i8*), i8* null), label %1066, label %1070

; <label>:1066                                    ; preds = %1063
  %1067 = bitcast i32* %155 to i8*
  call void @llvm.lifetime.start(i64 4, i8* %1067)
  %1068 = atomicrmw volatile add i32* %1065, i32 -1 acq_rel
  %reuse.cast180 = ptrtoint i32* %155 to i32
  call void @getReuseDistance(i32 %reuse.cast180)
  store i32 %1068, i32* %155, align 4
  %reuse.cast181 = ptrtoint i32* %155 to i32
  call void @getReuseDistance(i32 %reuse.cast181)
  %1069 = load volatile i32* %155, align 4
  call void @llvm.lifetime.end(i64 4, i8* %1067)
  br label %_ZN9__gnu_cxxL27__exchange_and_add_dispatchEPii.exit.i.i.i193

; <label>:1070                                    ; preds = %1063
  %reuse.cast182 = ptrtoint i32* %1065 to i32
  call void @getReuseDistance(i32 %reuse.cast182)
  %1071 = load i32* %1065, align 4, !tbaa !21
  %1072 = add nsw i32 %1071, -1
  %reuse.cast183 = ptrtoint i32* %1065 to i32
  call void @getReuseDistance(i32 %reuse.cast183)
  store i32 %1072, i32* %1065, align 4, !tbaa !21
  br label %_ZN9__gnu_cxxL27__exchange_and_add_dispatchEPii.exit.i.i.i193

_ZN9__gnu_cxxL27__exchange_and_add_dispatchEPii.exit.i.i.i193: ; preds = %1070, %1066
  %.0.i.i.i.i192 = phi i32 [ %1069, %1066 ], [ %1071, %1070 ]
  %1073 = icmp slt i32 %.0.i.i.i.i192, 1
  br i1 %1073, label %1074, label %1075

; <label>:1074                                    ; preds = %_ZN9__gnu_cxxL27__exchange_and_add_dispatchEPii.exit.i.i.i193
  call void @_ZNSs4_Rep10_M_destroyERKSaIcE(%"struct.std::basic_string<char, std::char_traits<char>, std::allocator<char> >::_Rep"* %1061, %"class.std::allocator"* dereferenceable(1) %156) #1
  br label %1075

; <label>:1075                                    ; preds = %1074, %_ZN9__gnu_cxxL27__exchange_and_add_dispatchEPii.exit.i.i.i193, %1056
  call void @llvm.lifetime.end(i64 1, i8* %1057)
  invoke void @_ZNSsC1EPKcRKSaIcE(%"class.std::basic_string"* %269, i8* getelementptr inbounds ([13 x i8]* @.str22, i32 0, i32 0), %"class.std::allocator"* dereferenceable(1) %270)
          to label %1076 unwind label %2365

; <label>:1076                                    ; preds = %1075
  invoke void @_ZNSsC1EPKcRKSaIcE(%"class.std::basic_string"* %271, i8* getelementptr inbounds ([1 x i8]* @.str11, i32 0, i32 0), %"class.std::allocator"* dereferenceable(1) %272)
          to label %1077 unwind label %2369

; <label>:1077                                    ; preds = %1076
  %1078 = invoke %class.YAML_Element* @_ZN12YAML_Element3addERKSsS1_(%class.YAML_Element* %643, %"class.std::basic_string"* dereferenceable(4) %269, %"class.std::basic_string"* dereferenceable(4) %271)
          to label %1079 unwind label %2373

; <label>:1079                                    ; preds = %1077
  %1080 = getelementptr inbounds %"class.std::allocator"* %148, i32 0, i32 0
  call void @llvm.lifetime.start(i64 1, i8* %1080)
  %1081 = getelementptr inbounds %"class.std::basic_string"* %271, i32 0, i32 0, i32 0
  %reuse.cast184 = ptrtoint i8** %1081 to i32
  call void @getReuseDistance(i32 %reuse.cast184)
  %1082 = load i8** %1081, align 4, !tbaa !28
  %1083 = getelementptr inbounds i8* %1082, i32 -12
  %1084 = bitcast i8* %1083 to %"struct.std::basic_string<char, std::char_traits<char>, std::allocator<char> >::_Rep"*
  %1085 = icmp eq i8* %1083, bitcast ([0 x i32]* @_ZNSs4_Rep20_S_empty_rep_storageE to i8*)
  br i1 %1085, label %1098, label %1086, !prof !31

; <label>:1086                                    ; preds = %1079
  %1087 = getelementptr inbounds i8* %1082, i32 -4
  %1088 = bitcast i8* %1087 to i32*
  br i1 icmp ne (i8* bitcast (i32 (i32*, void (i8*)*)* @__pthread_key_create to i8*), i8* null), label %1089, label %1093

; <label>:1089                                    ; preds = %1086
  %1090 = bitcast i32* %147 to i8*
  call void @llvm.lifetime.start(i64 4, i8* %1090)
  %1091 = atomicrmw volatile add i32* %1088, i32 -1 acq_rel
  %reuse.cast185 = ptrtoint i32* %147 to i32
  call void @getReuseDistance(i32 %reuse.cast185)
  store i32 %1091, i32* %147, align 4
  %reuse.cast186 = ptrtoint i32* %147 to i32
  call void @getReuseDistance(i32 %reuse.cast186)
  %1092 = load volatile i32* %147, align 4
  call void @llvm.lifetime.end(i64 4, i8* %1090)
  br label %_ZN9__gnu_cxxL27__exchange_and_add_dispatchEPii.exit.i.i.i205

; <label>:1093                                    ; preds = %1086
  %reuse.cast187 = ptrtoint i32* %1088 to i32
  call void @getReuseDistance(i32 %reuse.cast187)
  %1094 = load i32* %1088, align 4, !tbaa !21
  %1095 = add nsw i32 %1094, -1
  %reuse.cast188 = ptrtoint i32* %1088 to i32
  call void @getReuseDistance(i32 %reuse.cast188)
  store i32 %1095, i32* %1088, align 4, !tbaa !21
  br label %_ZN9__gnu_cxxL27__exchange_and_add_dispatchEPii.exit.i.i.i205

_ZN9__gnu_cxxL27__exchange_and_add_dispatchEPii.exit.i.i.i205: ; preds = %1093, %1089
  %.0.i.i.i.i204 = phi i32 [ %1092, %1089 ], [ %1094, %1093 ]
  %1096 = icmp slt i32 %.0.i.i.i.i204, 1
  br i1 %1096, label %1097, label %1098

; <label>:1097                                    ; preds = %_ZN9__gnu_cxxL27__exchange_and_add_dispatchEPii.exit.i.i.i205
  call void @_ZNSs4_Rep10_M_destroyERKSaIcE(%"struct.std::basic_string<char, std::char_traits<char>, std::allocator<char> >::_Rep"* %1084, %"class.std::allocator"* dereferenceable(1) %148) #1
  br label %1098

; <label>:1098                                    ; preds = %1097, %_ZN9__gnu_cxxL27__exchange_and_add_dispatchEPii.exit.i.i.i205, %1079
  call void @llvm.lifetime.end(i64 1, i8* %1080)
  %1099 = getelementptr inbounds %"class.std::allocator"* %144, i32 0, i32 0
  call void @llvm.lifetime.start(i64 1, i8* %1099)
  %1100 = getelementptr inbounds %"class.std::basic_string"* %269, i32 0, i32 0, i32 0
  %reuse.cast189 = ptrtoint i8** %1100 to i32
  call void @getReuseDistance(i32 %reuse.cast189)
  %1101 = load i8** %1100, align 4, !tbaa !28
  %1102 = getelementptr inbounds i8* %1101, i32 -12
  %1103 = bitcast i8* %1102 to %"struct.std::basic_string<char, std::char_traits<char>, std::allocator<char> >::_Rep"*
  %1104 = icmp eq i8* %1102, bitcast ([0 x i32]* @_ZNSs4_Rep20_S_empty_rep_storageE to i8*)
  br i1 %1104, label %1117, label %1105, !prof !31

; <label>:1105                                    ; preds = %1098
  %1106 = getelementptr inbounds i8* %1101, i32 -4
  %1107 = bitcast i8* %1106 to i32*
  br i1 icmp ne (i8* bitcast (i32 (i32*, void (i8*)*)* @__pthread_key_create to i8*), i8* null), label %1108, label %1112

; <label>:1108                                    ; preds = %1105
  %1109 = bitcast i32* %143 to i8*
  call void @llvm.lifetime.start(i64 4, i8* %1109)
  %1110 = atomicrmw volatile add i32* %1107, i32 -1 acq_rel
  %reuse.cast190 = ptrtoint i32* %143 to i32
  call void @getReuseDistance(i32 %reuse.cast190)
  store i32 %1110, i32* %143, align 4
  %reuse.cast191 = ptrtoint i32* %143 to i32
  call void @getReuseDistance(i32 %reuse.cast191)
  %1111 = load volatile i32* %143, align 4
  call void @llvm.lifetime.end(i64 4, i8* %1109)
  br label %_ZN9__gnu_cxxL27__exchange_and_add_dispatchEPii.exit.i.i.i211

; <label>:1112                                    ; preds = %1105
  %reuse.cast192 = ptrtoint i32* %1107 to i32
  call void @getReuseDistance(i32 %reuse.cast192)
  %1113 = load i32* %1107, align 4, !tbaa !21
  %1114 = add nsw i32 %1113, -1
  %reuse.cast193 = ptrtoint i32* %1107 to i32
  call void @getReuseDistance(i32 %reuse.cast193)
  store i32 %1114, i32* %1107, align 4, !tbaa !21
  br label %_ZN9__gnu_cxxL27__exchange_and_add_dispatchEPii.exit.i.i.i211

_ZN9__gnu_cxxL27__exchange_and_add_dispatchEPii.exit.i.i.i211: ; preds = %1112, %1108
  %.0.i.i.i.i210 = phi i32 [ %1111, %1108 ], [ %1113, %1112 ]
  %1115 = icmp slt i32 %.0.i.i.i.i210, 1
  br i1 %1115, label %1116, label %1117

; <label>:1116                                    ; preds = %_ZN9__gnu_cxxL27__exchange_and_add_dispatchEPii.exit.i.i.i211
  call void @_ZNSs4_Rep10_M_destroyERKSaIcE(%"struct.std::basic_string<char, std::char_traits<char>, std::allocator<char> >::_Rep"* %1103, %"class.std::allocator"* dereferenceable(1) %144) #1
  br label %1117

; <label>:1117                                    ; preds = %1116, %_ZN9__gnu_cxxL27__exchange_and_add_dispatchEPii.exit.i.i.i211, %1098
  call void @llvm.lifetime.end(i64 1, i8* %1099)
  invoke void @_ZNSsC1EPKcRKSaIcE(%"class.std::basic_string"* %273, i8* getelementptr inbounds ([13 x i8]* @.str22, i32 0, i32 0), %"class.std::allocator"* dereferenceable(1) %274)
          to label %1118 unwind label %2413

; <label>:1118                                    ; preds = %1117
  %1119 = invoke %class.YAML_Element* @_ZN12YAML_Element3getERKSs(%class.YAML_Element* %643, %"class.std::basic_string"* dereferenceable(4) %273)
          to label %1120 unwind label %2417

; <label>:1120                                    ; preds = %1118
  invoke void @_ZNSsC1EPKcRKSaIcE(%"class.std::basic_string"* %275, i8* getelementptr inbounds ([9 x i8]* @.str23, i32 0, i32 0), %"class.std::allocator"* dereferenceable(1) %276)
          to label %1121 unwind label %2421

; <label>:1121                                    ; preds = %1120
  %reuse.cast194 = ptrtoint double* %511 to i32
  call void @getReuseDistance(i32 %reuse.cast194)
  %1122 = load double* %511, align 8, !tbaa !22
  %1123 = invoke %class.YAML_Element* @_ZN12YAML_Element3addERKSsd(%class.YAML_Element* %1119, %"class.std::basic_string"* dereferenceable(4) %275, double %1122)
          to label %1124 unwind label %2425

; <label>:1124                                    ; preds = %1121
  %1125 = getelementptr inbounds %"class.std::allocator"* %136, i32 0, i32 0
  call void @llvm.lifetime.start(i64 1, i8* %1125)
  %1126 = getelementptr inbounds %"class.std::basic_string"* %275, i32 0, i32 0, i32 0
  %reuse.cast195 = ptrtoint i8** %1126 to i32
  call void @getReuseDistance(i32 %reuse.cast195)
  %1127 = load i8** %1126, align 4, !tbaa !28
  %1128 = getelementptr inbounds i8* %1127, i32 -12
  %1129 = bitcast i8* %1128 to %"struct.std::basic_string<char, std::char_traits<char>, std::allocator<char> >::_Rep"*
  %1130 = icmp eq i8* %1128, bitcast ([0 x i32]* @_ZNSs4_Rep20_S_empty_rep_storageE to i8*)
  br i1 %1130, label %1143, label %1131, !prof !31

; <label>:1131                                    ; preds = %1124
  %1132 = getelementptr inbounds i8* %1127, i32 -4
  %1133 = bitcast i8* %1132 to i32*
  br i1 icmp ne (i8* bitcast (i32 (i32*, void (i8*)*)* @__pthread_key_create to i8*), i8* null), label %1134, label %1138

; <label>:1134                                    ; preds = %1131
  %1135 = bitcast i32* %135 to i8*
  call void @llvm.lifetime.start(i64 4, i8* %1135)
  %1136 = atomicrmw volatile add i32* %1133, i32 -1 acq_rel
  %reuse.cast196 = ptrtoint i32* %135 to i32
  call void @getReuseDistance(i32 %reuse.cast196)
  store i32 %1136, i32* %135, align 4
  %reuse.cast197 = ptrtoint i32* %135 to i32
  call void @getReuseDistance(i32 %reuse.cast197)
  %1137 = load volatile i32* %135, align 4
  call void @llvm.lifetime.end(i64 4, i8* %1135)
  br label %_ZN9__gnu_cxxL27__exchange_and_add_dispatchEPii.exit.i.i.i223

; <label>:1138                                    ; preds = %1131
  %reuse.cast198 = ptrtoint i32* %1133 to i32
  call void @getReuseDistance(i32 %reuse.cast198)
  %1139 = load i32* %1133, align 4, !tbaa !21
  %1140 = add nsw i32 %1139, -1
  %reuse.cast199 = ptrtoint i32* %1133 to i32
  call void @getReuseDistance(i32 %reuse.cast199)
  store i32 %1140, i32* %1133, align 4, !tbaa !21
  br label %_ZN9__gnu_cxxL27__exchange_and_add_dispatchEPii.exit.i.i.i223

_ZN9__gnu_cxxL27__exchange_and_add_dispatchEPii.exit.i.i.i223: ; preds = %1138, %1134
  %.0.i.i.i.i222 = phi i32 [ %1137, %1134 ], [ %1139, %1138 ]
  %1141 = icmp slt i32 %.0.i.i.i.i222, 1
  br i1 %1141, label %1142, label %1143

; <label>:1142                                    ; preds = %_ZN9__gnu_cxxL27__exchange_and_add_dispatchEPii.exit.i.i.i223
  call void @_ZNSs4_Rep10_M_destroyERKSaIcE(%"struct.std::basic_string<char, std::char_traits<char>, std::allocator<char> >::_Rep"* %1129, %"class.std::allocator"* dereferenceable(1) %136) #1
  br label %1143

; <label>:1143                                    ; preds = %1142, %_ZN9__gnu_cxxL27__exchange_and_add_dispatchEPii.exit.i.i.i223, %1124
  call void @llvm.lifetime.end(i64 1, i8* %1125)
  %1144 = getelementptr inbounds %"class.std::allocator"* %132, i32 0, i32 0
  call void @llvm.lifetime.start(i64 1, i8* %1144)
  %1145 = getelementptr inbounds %"class.std::basic_string"* %273, i32 0, i32 0, i32 0
  %reuse.cast200 = ptrtoint i8** %1145 to i32
  call void @getReuseDistance(i32 %reuse.cast200)
  %1146 = load i8** %1145, align 4, !tbaa !28
  %1147 = getelementptr inbounds i8* %1146, i32 -12
  %1148 = bitcast i8* %1147 to %"struct.std::basic_string<char, std::char_traits<char>, std::allocator<char> >::_Rep"*
  %1149 = icmp eq i8* %1147, bitcast ([0 x i32]* @_ZNSs4_Rep20_S_empty_rep_storageE to i8*)
  br i1 %1149, label %1162, label %1150, !prof !31

; <label>:1150                                    ; preds = %1143
  %1151 = getelementptr inbounds i8* %1146, i32 -4
  %1152 = bitcast i8* %1151 to i32*
  br i1 icmp ne (i8* bitcast (i32 (i32*, void (i8*)*)* @__pthread_key_create to i8*), i8* null), label %1153, label %1157

; <label>:1153                                    ; preds = %1150
  %1154 = bitcast i32* %131 to i8*
  call void @llvm.lifetime.start(i64 4, i8* %1154)
  %1155 = atomicrmw volatile add i32* %1152, i32 -1 acq_rel
  %reuse.cast201 = ptrtoint i32* %131 to i32
  call void @getReuseDistance(i32 %reuse.cast201)
  store i32 %1155, i32* %131, align 4
  %reuse.cast202 = ptrtoint i32* %131 to i32
  call void @getReuseDistance(i32 %reuse.cast202)
  %1156 = load volatile i32* %131, align 4
  call void @llvm.lifetime.end(i64 4, i8* %1154)
  br label %_ZN9__gnu_cxxL27__exchange_and_add_dispatchEPii.exit.i.i.i229

; <label>:1157                                    ; preds = %1150
  %reuse.cast203 = ptrtoint i32* %1152 to i32
  call void @getReuseDistance(i32 %reuse.cast203)
  %1158 = load i32* %1152, align 4, !tbaa !21
  %1159 = add nsw i32 %1158, -1
  %reuse.cast204 = ptrtoint i32* %1152 to i32
  call void @getReuseDistance(i32 %reuse.cast204)
  store i32 %1159, i32* %1152, align 4, !tbaa !21
  br label %_ZN9__gnu_cxxL27__exchange_and_add_dispatchEPii.exit.i.i.i229

_ZN9__gnu_cxxL27__exchange_and_add_dispatchEPii.exit.i.i.i229: ; preds = %1157, %1153
  %.0.i.i.i.i228 = phi i32 [ %1156, %1153 ], [ %1158, %1157 ]
  %1160 = icmp slt i32 %.0.i.i.i.i228, 1
  br i1 %1160, label %1161, label %1162

; <label>:1161                                    ; preds = %_ZN9__gnu_cxxL27__exchange_and_add_dispatchEPii.exit.i.i.i229
  call void @_ZNSs4_Rep10_M_destroyERKSaIcE(%"struct.std::basic_string<char, std::char_traits<char>, std::allocator<char> >::_Rep"* %1148, %"class.std::allocator"* dereferenceable(1) %132) #1
  br label %1162

; <label>:1162                                    ; preds = %1161, %_ZN9__gnu_cxxL27__exchange_and_add_dispatchEPii.exit.i.i.i229, %1143
  call void @llvm.lifetime.end(i64 1, i8* %1144)
  invoke void @_ZNSsC1EPKcRKSaIcE(%"class.std::basic_string"* %277, i8* getelementptr inbounds ([13 x i8]* @.str22, i32 0, i32 0), %"class.std::allocator"* dereferenceable(1) %278)
          to label %1163 unwind label %2465

; <label>:1163                                    ; preds = %1162
  %1164 = invoke %class.YAML_Element* @_ZN12YAML_Element3getERKSs(%class.YAML_Element* %643, %"class.std::basic_string"* dereferenceable(4) %277)
          to label %1165 unwind label %2469

; <label>:1165                                    ; preds = %1163
  invoke void @_ZNSsC1EPKcRKSaIcE(%"class.std::basic_string"* %279, i8* getelementptr inbounds ([9 x i8]* @.str24, i32 0, i32 0), %"class.std::allocator"* dereferenceable(1) %280)
          to label %1166 unwind label %2473

; <label>:1166                                    ; preds = %1165
  %1167 = getelementptr inbounds [7 x double]* %times, i32 0, i32 1
  %reuse.cast205 = ptrtoint double* %1167 to i32
  call void @getReuseDistance(i32 %reuse.cast205)
  %1168 = load double* %1167, align 8, !tbaa !22
  %1169 = invoke %class.YAML_Element* @_ZN12YAML_Element3addERKSsd(%class.YAML_Element* %1164, %"class.std::basic_string"* dereferenceable(4) %279, double %1168)
          to label %1170 unwind label %2477

; <label>:1170                                    ; preds = %1166
  %1171 = getelementptr inbounds %"class.std::allocator"* %124, i32 0, i32 0
  call void @llvm.lifetime.start(i64 1, i8* %1171)
  %1172 = getelementptr inbounds %"class.std::basic_string"* %279, i32 0, i32 0, i32 0
  %reuse.cast206 = ptrtoint i8** %1172 to i32
  call void @getReuseDistance(i32 %reuse.cast206)
  %1173 = load i8** %1172, align 4, !tbaa !28
  %1174 = getelementptr inbounds i8* %1173, i32 -12
  %1175 = bitcast i8* %1174 to %"struct.std::basic_string<char, std::char_traits<char>, std::allocator<char> >::_Rep"*
  %1176 = icmp eq i8* %1174, bitcast ([0 x i32]* @_ZNSs4_Rep20_S_empty_rep_storageE to i8*)
  br i1 %1176, label %1189, label %1177, !prof !31

; <label>:1177                                    ; preds = %1170
  %1178 = getelementptr inbounds i8* %1173, i32 -4
  %1179 = bitcast i8* %1178 to i32*
  br i1 icmp ne (i8* bitcast (i32 (i32*, void (i8*)*)* @__pthread_key_create to i8*), i8* null), label %1180, label %1184

; <label>:1180                                    ; preds = %1177
  %1181 = bitcast i32* %123 to i8*
  call void @llvm.lifetime.start(i64 4, i8* %1181)
  %1182 = atomicrmw volatile add i32* %1179, i32 -1 acq_rel
  %reuse.cast207 = ptrtoint i32* %123 to i32
  call void @getReuseDistance(i32 %reuse.cast207)
  store i32 %1182, i32* %123, align 4
  %reuse.cast208 = ptrtoint i32* %123 to i32
  call void @getReuseDistance(i32 %reuse.cast208)
  %1183 = load volatile i32* %123, align 4
  call void @llvm.lifetime.end(i64 4, i8* %1181)
  br label %_ZN9__gnu_cxxL27__exchange_and_add_dispatchEPii.exit.i.i.i241

; <label>:1184                                    ; preds = %1177
  %reuse.cast209 = ptrtoint i32* %1179 to i32
  call void @getReuseDistance(i32 %reuse.cast209)
  %1185 = load i32* %1179, align 4, !tbaa !21
  %1186 = add nsw i32 %1185, -1
  %reuse.cast210 = ptrtoint i32* %1179 to i32
  call void @getReuseDistance(i32 %reuse.cast210)
  store i32 %1186, i32* %1179, align 4, !tbaa !21
  br label %_ZN9__gnu_cxxL27__exchange_and_add_dispatchEPii.exit.i.i.i241

_ZN9__gnu_cxxL27__exchange_and_add_dispatchEPii.exit.i.i.i241: ; preds = %1184, %1180
  %.0.i.i.i.i240 = phi i32 [ %1183, %1180 ], [ %1185, %1184 ]
  %1187 = icmp slt i32 %.0.i.i.i.i240, 1
  br i1 %1187, label %1188, label %1189

; <label>:1188                                    ; preds = %_ZN9__gnu_cxxL27__exchange_and_add_dispatchEPii.exit.i.i.i241
  call void @_ZNSs4_Rep10_M_destroyERKSaIcE(%"struct.std::basic_string<char, std::char_traits<char>, std::allocator<char> >::_Rep"* %1175, %"class.std::allocator"* dereferenceable(1) %124) #1
  br label %1189

; <label>:1189                                    ; preds = %1188, %_ZN9__gnu_cxxL27__exchange_and_add_dispatchEPii.exit.i.i.i241, %1170
  call void @llvm.lifetime.end(i64 1, i8* %1171)
  %1190 = getelementptr inbounds %"class.std::allocator"* %120, i32 0, i32 0
  call void @llvm.lifetime.start(i64 1, i8* %1190)
  %1191 = getelementptr inbounds %"class.std::basic_string"* %277, i32 0, i32 0, i32 0
  %reuse.cast211 = ptrtoint i8** %1191 to i32
  call void @getReuseDistance(i32 %reuse.cast211)
  %1192 = load i8** %1191, align 4, !tbaa !28
  %1193 = getelementptr inbounds i8* %1192, i32 -12
  %1194 = bitcast i8* %1193 to %"struct.std::basic_string<char, std::char_traits<char>, std::allocator<char> >::_Rep"*
  %1195 = icmp eq i8* %1193, bitcast ([0 x i32]* @_ZNSs4_Rep20_S_empty_rep_storageE to i8*)
  br i1 %1195, label %1208, label %1196, !prof !31

; <label>:1196                                    ; preds = %1189
  %1197 = getelementptr inbounds i8* %1192, i32 -4
  %1198 = bitcast i8* %1197 to i32*
  br i1 icmp ne (i8* bitcast (i32 (i32*, void (i8*)*)* @__pthread_key_create to i8*), i8* null), label %1199, label %1203

; <label>:1199                                    ; preds = %1196
  %1200 = bitcast i32* %119 to i8*
  call void @llvm.lifetime.start(i64 4, i8* %1200)
  %1201 = atomicrmw volatile add i32* %1198, i32 -1 acq_rel
  %reuse.cast212 = ptrtoint i32* %119 to i32
  call void @getReuseDistance(i32 %reuse.cast212)
  store i32 %1201, i32* %119, align 4
  %reuse.cast213 = ptrtoint i32* %119 to i32
  call void @getReuseDistance(i32 %reuse.cast213)
  %1202 = load volatile i32* %119, align 4
  call void @llvm.lifetime.end(i64 4, i8* %1200)
  br label %_ZN9__gnu_cxxL27__exchange_and_add_dispatchEPii.exit.i.i.i247

; <label>:1203                                    ; preds = %1196
  %reuse.cast214 = ptrtoint i32* %1198 to i32
  call void @getReuseDistance(i32 %reuse.cast214)
  %1204 = load i32* %1198, align 4, !tbaa !21
  %1205 = add nsw i32 %1204, -1
  %reuse.cast215 = ptrtoint i32* %1198 to i32
  call void @getReuseDistance(i32 %reuse.cast215)
  store i32 %1205, i32* %1198, align 4, !tbaa !21
  br label %_ZN9__gnu_cxxL27__exchange_and_add_dispatchEPii.exit.i.i.i247

_ZN9__gnu_cxxL27__exchange_and_add_dispatchEPii.exit.i.i.i247: ; preds = %1203, %1199
  %.0.i.i.i.i246 = phi i32 [ %1202, %1199 ], [ %1204, %1203 ]
  %1206 = icmp slt i32 %.0.i.i.i.i246, 1
  br i1 %1206, label %1207, label %1208

; <label>:1207                                    ; preds = %_ZN9__gnu_cxxL27__exchange_and_add_dispatchEPii.exit.i.i.i247
  call void @_ZNSs4_Rep10_M_destroyERKSaIcE(%"struct.std::basic_string<char, std::char_traits<char>, std::allocator<char> >::_Rep"* %1194, %"class.std::allocator"* dereferenceable(1) %120) #1
  br label %1208

; <label>:1208                                    ; preds = %1207, %_ZN9__gnu_cxxL27__exchange_and_add_dispatchEPii.exit.i.i.i247, %1189
  call void @llvm.lifetime.end(i64 1, i8* %1190)
  invoke void @_ZNSsC1EPKcRKSaIcE(%"class.std::basic_string"* %281, i8* getelementptr inbounds ([13 x i8]* @.str22, i32 0, i32 0), %"class.std::allocator"* dereferenceable(1) %282)
          to label %1209 unwind label %2517

; <label>:1209                                    ; preds = %1208
  %1210 = invoke %class.YAML_Element* @_ZN12YAML_Element3getERKSs(%class.YAML_Element* %643, %"class.std::basic_string"* dereferenceable(4) %281)
          to label %1211 unwind label %2521

; <label>:1211                                    ; preds = %1209
  invoke void @_ZNSsC1EPKcRKSaIcE(%"class.std::basic_string"* %283, i8* getelementptr inbounds ([9 x i8]* @.str25, i32 0, i32 0), %"class.std::allocator"* dereferenceable(1) %284)
          to label %1212 unwind label %2525

; <label>:1212                                    ; preds = %1211
  %1213 = getelementptr inbounds [7 x double]* %times, i32 0, i32 2
  %reuse.cast216 = ptrtoint double* %1213 to i32
  call void @getReuseDistance(i32 %reuse.cast216)
  %1214 = load double* %1213, align 8, !tbaa !22
  %1215 = invoke %class.YAML_Element* @_ZN12YAML_Element3addERKSsd(%class.YAML_Element* %1210, %"class.std::basic_string"* dereferenceable(4) %283, double %1214)
          to label %1216 unwind label %2529

; <label>:1216                                    ; preds = %1212
  %1217 = getelementptr inbounds %"class.std::allocator"* %112, i32 0, i32 0
  call void @llvm.lifetime.start(i64 1, i8* %1217)
  %1218 = getelementptr inbounds %"class.std::basic_string"* %283, i32 0, i32 0, i32 0
  %reuse.cast217 = ptrtoint i8** %1218 to i32
  call void @getReuseDistance(i32 %reuse.cast217)
  %1219 = load i8** %1218, align 4, !tbaa !28
  %1220 = getelementptr inbounds i8* %1219, i32 -12
  %1221 = bitcast i8* %1220 to %"struct.std::basic_string<char, std::char_traits<char>, std::allocator<char> >::_Rep"*
  %1222 = icmp eq i8* %1220, bitcast ([0 x i32]* @_ZNSs4_Rep20_S_empty_rep_storageE to i8*)
  br i1 %1222, label %1235, label %1223, !prof !31

; <label>:1223                                    ; preds = %1216
  %1224 = getelementptr inbounds i8* %1219, i32 -4
  %1225 = bitcast i8* %1224 to i32*
  br i1 icmp ne (i8* bitcast (i32 (i32*, void (i8*)*)* @__pthread_key_create to i8*), i8* null), label %1226, label %1230

; <label>:1226                                    ; preds = %1223
  %1227 = bitcast i32* %111 to i8*
  call void @llvm.lifetime.start(i64 4, i8* %1227)
  %1228 = atomicrmw volatile add i32* %1225, i32 -1 acq_rel
  %reuse.cast218 = ptrtoint i32* %111 to i32
  call void @getReuseDistance(i32 %reuse.cast218)
  store i32 %1228, i32* %111, align 4
  %reuse.cast219 = ptrtoint i32* %111 to i32
  call void @getReuseDistance(i32 %reuse.cast219)
  %1229 = load volatile i32* %111, align 4
  call void @llvm.lifetime.end(i64 4, i8* %1227)
  br label %_ZN9__gnu_cxxL27__exchange_and_add_dispatchEPii.exit.i.i.i259

; <label>:1230                                    ; preds = %1223
  %reuse.cast220 = ptrtoint i32* %1225 to i32
  call void @getReuseDistance(i32 %reuse.cast220)
  %1231 = load i32* %1225, align 4, !tbaa !21
  %1232 = add nsw i32 %1231, -1
  %reuse.cast221 = ptrtoint i32* %1225 to i32
  call void @getReuseDistance(i32 %reuse.cast221)
  store i32 %1232, i32* %1225, align 4, !tbaa !21
  br label %_ZN9__gnu_cxxL27__exchange_and_add_dispatchEPii.exit.i.i.i259

_ZN9__gnu_cxxL27__exchange_and_add_dispatchEPii.exit.i.i.i259: ; preds = %1230, %1226
  %.0.i.i.i.i258 = phi i32 [ %1229, %1226 ], [ %1231, %1230 ]
  %1233 = icmp slt i32 %.0.i.i.i.i258, 1
  br i1 %1233, label %1234, label %1235

; <label>:1234                                    ; preds = %_ZN9__gnu_cxxL27__exchange_and_add_dispatchEPii.exit.i.i.i259
  call void @_ZNSs4_Rep10_M_destroyERKSaIcE(%"struct.std::basic_string<char, std::char_traits<char>, std::allocator<char> >::_Rep"* %1221, %"class.std::allocator"* dereferenceable(1) %112) #1
  br label %1235

; <label>:1235                                    ; preds = %1234, %_ZN9__gnu_cxxL27__exchange_and_add_dispatchEPii.exit.i.i.i259, %1216
  call void @llvm.lifetime.end(i64 1, i8* %1217)
  %1236 = getelementptr inbounds %"class.std::allocator"* %108, i32 0, i32 0
  call void @llvm.lifetime.start(i64 1, i8* %1236)
  %1237 = getelementptr inbounds %"class.std::basic_string"* %281, i32 0, i32 0, i32 0
  %reuse.cast222 = ptrtoint i8** %1237 to i32
  call void @getReuseDistance(i32 %reuse.cast222)
  %1238 = load i8** %1237, align 4, !tbaa !28
  %1239 = getelementptr inbounds i8* %1238, i32 -12
  %1240 = bitcast i8* %1239 to %"struct.std::basic_string<char, std::char_traits<char>, std::allocator<char> >::_Rep"*
  %1241 = icmp eq i8* %1239, bitcast ([0 x i32]* @_ZNSs4_Rep20_S_empty_rep_storageE to i8*)
  br i1 %1241, label %1254, label %1242, !prof !31

; <label>:1242                                    ; preds = %1235
  %1243 = getelementptr inbounds i8* %1238, i32 -4
  %1244 = bitcast i8* %1243 to i32*
  br i1 icmp ne (i8* bitcast (i32 (i32*, void (i8*)*)* @__pthread_key_create to i8*), i8* null), label %1245, label %1249

; <label>:1245                                    ; preds = %1242
  %1246 = bitcast i32* %107 to i8*
  call void @llvm.lifetime.start(i64 4, i8* %1246)
  %1247 = atomicrmw volatile add i32* %1244, i32 -1 acq_rel
  %reuse.cast223 = ptrtoint i32* %107 to i32
  call void @getReuseDistance(i32 %reuse.cast223)
  store i32 %1247, i32* %107, align 4
  %reuse.cast224 = ptrtoint i32* %107 to i32
  call void @getReuseDistance(i32 %reuse.cast224)
  %1248 = load volatile i32* %107, align 4
  call void @llvm.lifetime.end(i64 4, i8* %1246)
  br label %_ZN9__gnu_cxxL27__exchange_and_add_dispatchEPii.exit.i.i.i265

; <label>:1249                                    ; preds = %1242
  %reuse.cast225 = ptrtoint i32* %1244 to i32
  call void @getReuseDistance(i32 %reuse.cast225)
  %1250 = load i32* %1244, align 4, !tbaa !21
  %1251 = add nsw i32 %1250, -1
  %reuse.cast226 = ptrtoint i32* %1244 to i32
  call void @getReuseDistance(i32 %reuse.cast226)
  store i32 %1251, i32* %1244, align 4, !tbaa !21
  br label %_ZN9__gnu_cxxL27__exchange_and_add_dispatchEPii.exit.i.i.i265

_ZN9__gnu_cxxL27__exchange_and_add_dispatchEPii.exit.i.i.i265: ; preds = %1249, %1245
  %.0.i.i.i.i264 = phi i32 [ %1248, %1245 ], [ %1250, %1249 ]
  %1252 = icmp slt i32 %.0.i.i.i.i264, 1
  br i1 %1252, label %1253, label %1254

; <label>:1253                                    ; preds = %_ZN9__gnu_cxxL27__exchange_and_add_dispatchEPii.exit.i.i.i265
  call void @_ZNSs4_Rep10_M_destroyERKSaIcE(%"struct.std::basic_string<char, std::char_traits<char>, std::allocator<char> >::_Rep"* %1240, %"class.std::allocator"* dereferenceable(1) %108) #1
  br label %1254

; <label>:1254                                    ; preds = %1253, %_ZN9__gnu_cxxL27__exchange_and_add_dispatchEPii.exit.i.i.i265, %1235
  call void @llvm.lifetime.end(i64 1, i8* %1236)
  invoke void @_ZNSsC1EPKcRKSaIcE(%"class.std::basic_string"* %285, i8* getelementptr inbounds ([13 x i8]* @.str22, i32 0, i32 0), %"class.std::allocator"* dereferenceable(1) %286)
          to label %1255 unwind label %2569

; <label>:1255                                    ; preds = %1254
  %1256 = invoke %class.YAML_Element* @_ZN12YAML_Element3getERKSs(%class.YAML_Element* %643, %"class.std::basic_string"* dereferenceable(4) %285)
          to label %1257 unwind label %2573

; <label>:1257                                    ; preds = %1255
  invoke void @_ZNSsC1EPKcRKSaIcE(%"class.std::basic_string"* %287, i8* getelementptr inbounds ([9 x i8]* @.str26, i32 0, i32 0), %"class.std::allocator"* dereferenceable(1) %288)
          to label %1258 unwind label %2577

; <label>:1258                                    ; preds = %1257
  %1259 = getelementptr inbounds [7 x double]* %times, i32 0, i32 3
  %reuse.cast227 = ptrtoint double* %1259 to i32
  call void @getReuseDistance(i32 %reuse.cast227)
  %1260 = load double* %1259, align 8, !tbaa !22
  %1261 = invoke %class.YAML_Element* @_ZN12YAML_Element3addERKSsd(%class.YAML_Element* %1256, %"class.std::basic_string"* dereferenceable(4) %287, double %1260)
          to label %1262 unwind label %2581

; <label>:1262                                    ; preds = %1258
  %1263 = getelementptr inbounds %"class.std::allocator"* %100, i32 0, i32 0
  call void @llvm.lifetime.start(i64 1, i8* %1263)
  %1264 = getelementptr inbounds %"class.std::basic_string"* %287, i32 0, i32 0, i32 0
  %reuse.cast228 = ptrtoint i8** %1264 to i32
  call void @getReuseDistance(i32 %reuse.cast228)
  %1265 = load i8** %1264, align 4, !tbaa !28
  %1266 = getelementptr inbounds i8* %1265, i32 -12
  %1267 = bitcast i8* %1266 to %"struct.std::basic_string<char, std::char_traits<char>, std::allocator<char> >::_Rep"*
  %1268 = icmp eq i8* %1266, bitcast ([0 x i32]* @_ZNSs4_Rep20_S_empty_rep_storageE to i8*)
  br i1 %1268, label %1281, label %1269, !prof !31

; <label>:1269                                    ; preds = %1262
  %1270 = getelementptr inbounds i8* %1265, i32 -4
  %1271 = bitcast i8* %1270 to i32*
  br i1 icmp ne (i8* bitcast (i32 (i32*, void (i8*)*)* @__pthread_key_create to i8*), i8* null), label %1272, label %1276

; <label>:1272                                    ; preds = %1269
  %1273 = bitcast i32* %99 to i8*
  call void @llvm.lifetime.start(i64 4, i8* %1273)
  %1274 = atomicrmw volatile add i32* %1271, i32 -1 acq_rel
  %reuse.cast229 = ptrtoint i32* %99 to i32
  call void @getReuseDistance(i32 %reuse.cast229)
  store i32 %1274, i32* %99, align 4
  %reuse.cast230 = ptrtoint i32* %99 to i32
  call void @getReuseDistance(i32 %reuse.cast230)
  %1275 = load volatile i32* %99, align 4
  call void @llvm.lifetime.end(i64 4, i8* %1273)
  br label %_ZN9__gnu_cxxL27__exchange_and_add_dispatchEPii.exit.i.i.i277

; <label>:1276                                    ; preds = %1269
  %reuse.cast231 = ptrtoint i32* %1271 to i32
  call void @getReuseDistance(i32 %reuse.cast231)
  %1277 = load i32* %1271, align 4, !tbaa !21
  %1278 = add nsw i32 %1277, -1
  %reuse.cast232 = ptrtoint i32* %1271 to i32
  call void @getReuseDistance(i32 %reuse.cast232)
  store i32 %1278, i32* %1271, align 4, !tbaa !21
  br label %_ZN9__gnu_cxxL27__exchange_and_add_dispatchEPii.exit.i.i.i277

_ZN9__gnu_cxxL27__exchange_and_add_dispatchEPii.exit.i.i.i277: ; preds = %1276, %1272
  %.0.i.i.i.i276 = phi i32 [ %1275, %1272 ], [ %1277, %1276 ]
  %1279 = icmp slt i32 %.0.i.i.i.i276, 1
  br i1 %1279, label %1280, label %1281

; <label>:1280                                    ; preds = %_ZN9__gnu_cxxL27__exchange_and_add_dispatchEPii.exit.i.i.i277
  call void @_ZNSs4_Rep10_M_destroyERKSaIcE(%"struct.std::basic_string<char, std::char_traits<char>, std::allocator<char> >::_Rep"* %1267, %"class.std::allocator"* dereferenceable(1) %100) #1
  br label %1281

; <label>:1281                                    ; preds = %1280, %_ZN9__gnu_cxxL27__exchange_and_add_dispatchEPii.exit.i.i.i277, %1262
  call void @llvm.lifetime.end(i64 1, i8* %1263)
  %1282 = getelementptr inbounds %"class.std::allocator"* %96, i32 0, i32 0
  call void @llvm.lifetime.start(i64 1, i8* %1282)
  %1283 = getelementptr inbounds %"class.std::basic_string"* %285, i32 0, i32 0, i32 0
  %reuse.cast233 = ptrtoint i8** %1283 to i32
  call void @getReuseDistance(i32 %reuse.cast233)
  %1284 = load i8** %1283, align 4, !tbaa !28
  %1285 = getelementptr inbounds i8* %1284, i32 -12
  %1286 = bitcast i8* %1285 to %"struct.std::basic_string<char, std::char_traits<char>, std::allocator<char> >::_Rep"*
  %1287 = icmp eq i8* %1285, bitcast ([0 x i32]* @_ZNSs4_Rep20_S_empty_rep_storageE to i8*)
  br i1 %1287, label %1300, label %1288, !prof !31

; <label>:1288                                    ; preds = %1281
  %1289 = getelementptr inbounds i8* %1284, i32 -4
  %1290 = bitcast i8* %1289 to i32*
  br i1 icmp ne (i8* bitcast (i32 (i32*, void (i8*)*)* @__pthread_key_create to i8*), i8* null), label %1291, label %1295

; <label>:1291                                    ; preds = %1288
  %1292 = bitcast i32* %95 to i8*
  call void @llvm.lifetime.start(i64 4, i8* %1292)
  %1293 = atomicrmw volatile add i32* %1290, i32 -1 acq_rel
  %reuse.cast234 = ptrtoint i32* %95 to i32
  call void @getReuseDistance(i32 %reuse.cast234)
  store i32 %1293, i32* %95, align 4
  %reuse.cast235 = ptrtoint i32* %95 to i32
  call void @getReuseDistance(i32 %reuse.cast235)
  %1294 = load volatile i32* %95, align 4
  call void @llvm.lifetime.end(i64 4, i8* %1292)
  br label %_ZN9__gnu_cxxL27__exchange_and_add_dispatchEPii.exit.i.i.i283

; <label>:1295                                    ; preds = %1288
  %reuse.cast236 = ptrtoint i32* %1290 to i32
  call void @getReuseDistance(i32 %reuse.cast236)
  %1296 = load i32* %1290, align 4, !tbaa !21
  %1297 = add nsw i32 %1296, -1
  %reuse.cast237 = ptrtoint i32* %1290 to i32
  call void @getReuseDistance(i32 %reuse.cast237)
  store i32 %1297, i32* %1290, align 4, !tbaa !21
  br label %_ZN9__gnu_cxxL27__exchange_and_add_dispatchEPii.exit.i.i.i283

_ZN9__gnu_cxxL27__exchange_and_add_dispatchEPii.exit.i.i.i283: ; preds = %1295, %1291
  %.0.i.i.i.i282 = phi i32 [ %1294, %1291 ], [ %1296, %1295 ]
  %1298 = icmp slt i32 %.0.i.i.i.i282, 1
  br i1 %1298, label %1299, label %1300

; <label>:1299                                    ; preds = %_ZN9__gnu_cxxL27__exchange_and_add_dispatchEPii.exit.i.i.i283
  call void @_ZNSs4_Rep10_M_destroyERKSaIcE(%"struct.std::basic_string<char, std::char_traits<char>, std::allocator<char> >::_Rep"* %1286, %"class.std::allocator"* dereferenceable(1) %96) #1
  br label %1300

; <label>:1300                                    ; preds = %1299, %_ZN9__gnu_cxxL27__exchange_and_add_dispatchEPii.exit.i.i.i283, %1281
  call void @llvm.lifetime.end(i64 1, i8* %1282)
  invoke void @_ZNSsC1EPKcRKSaIcE(%"class.std::basic_string"* %289, i8* getelementptr inbounds ([14 x i8]* @.str27, i32 0, i32 0), %"class.std::allocator"* dereferenceable(1) %290)
          to label %1301 unwind label %2621

; <label>:1301                                    ; preds = %1300
  invoke void @_ZNSsC1EPKcRKSaIcE(%"class.std::basic_string"* %291, i8* getelementptr inbounds ([1 x i8]* @.str11, i32 0, i32 0), %"class.std::allocator"* dereferenceable(1) %292)
          to label %1302 unwind label %2625

; <label>:1302                                    ; preds = %1301
  %1303 = invoke %class.YAML_Element* @_ZN12YAML_Element3addERKSsS1_(%class.YAML_Element* %643, %"class.std::basic_string"* dereferenceable(4) %289, %"class.std::basic_string"* dereferenceable(4) %291)
          to label %1304 unwind label %2629

; <label>:1304                                    ; preds = %1302
  %1305 = getelementptr inbounds %"class.std::allocator"* %88, i32 0, i32 0
  call void @llvm.lifetime.start(i64 1, i8* %1305)
  %1306 = getelementptr inbounds %"class.std::basic_string"* %291, i32 0, i32 0, i32 0
  %reuse.cast238 = ptrtoint i8** %1306 to i32
  call void @getReuseDistance(i32 %reuse.cast238)
  %1307 = load i8** %1306, align 4, !tbaa !28
  %1308 = getelementptr inbounds i8* %1307, i32 -12
  %1309 = bitcast i8* %1308 to %"struct.std::basic_string<char, std::char_traits<char>, std::allocator<char> >::_Rep"*
  %1310 = icmp eq i8* %1308, bitcast ([0 x i32]* @_ZNSs4_Rep20_S_empty_rep_storageE to i8*)
  br i1 %1310, label %1323, label %1311, !prof !31

; <label>:1311                                    ; preds = %1304
  %1312 = getelementptr inbounds i8* %1307, i32 -4
  %1313 = bitcast i8* %1312 to i32*
  br i1 icmp ne (i8* bitcast (i32 (i32*, void (i8*)*)* @__pthread_key_create to i8*), i8* null), label %1314, label %1318

; <label>:1314                                    ; preds = %1311
  %1315 = bitcast i32* %87 to i8*
  call void @llvm.lifetime.start(i64 4, i8* %1315)
  %1316 = atomicrmw volatile add i32* %1313, i32 -1 acq_rel
  %reuse.cast239 = ptrtoint i32* %87 to i32
  call void @getReuseDistance(i32 %reuse.cast239)
  store i32 %1316, i32* %87, align 4
  %reuse.cast240 = ptrtoint i32* %87 to i32
  call void @getReuseDistance(i32 %reuse.cast240)
  %1317 = load volatile i32* %87, align 4
  call void @llvm.lifetime.end(i64 4, i8* %1315)
  br label %_ZN9__gnu_cxxL27__exchange_and_add_dispatchEPii.exit.i.i.i295

; <label>:1318                                    ; preds = %1311
  %reuse.cast241 = ptrtoint i32* %1313 to i32
  call void @getReuseDistance(i32 %reuse.cast241)
  %1319 = load i32* %1313, align 4, !tbaa !21
  %1320 = add nsw i32 %1319, -1
  %reuse.cast242 = ptrtoint i32* %1313 to i32
  call void @getReuseDistance(i32 %reuse.cast242)
  store i32 %1320, i32* %1313, align 4, !tbaa !21
  br label %_ZN9__gnu_cxxL27__exchange_and_add_dispatchEPii.exit.i.i.i295

_ZN9__gnu_cxxL27__exchange_and_add_dispatchEPii.exit.i.i.i295: ; preds = %1318, %1314
  %.0.i.i.i.i294 = phi i32 [ %1317, %1314 ], [ %1319, %1318 ]
  %1321 = icmp slt i32 %.0.i.i.i.i294, 1
  br i1 %1321, label %1322, label %1323

; <label>:1322                                    ; preds = %_ZN9__gnu_cxxL27__exchange_and_add_dispatchEPii.exit.i.i.i295
  call void @_ZNSs4_Rep10_M_destroyERKSaIcE(%"struct.std::basic_string<char, std::char_traits<char>, std::allocator<char> >::_Rep"* %1309, %"class.std::allocator"* dereferenceable(1) %88) #1
  br label %1323

; <label>:1323                                    ; preds = %1322, %_ZN9__gnu_cxxL27__exchange_and_add_dispatchEPii.exit.i.i.i295, %1304
  call void @llvm.lifetime.end(i64 1, i8* %1305)
  %1324 = getelementptr inbounds %"class.std::allocator"* %84, i32 0, i32 0
  call void @llvm.lifetime.start(i64 1, i8* %1324)
  %1325 = getelementptr inbounds %"class.std::basic_string"* %289, i32 0, i32 0, i32 0
  %reuse.cast243 = ptrtoint i8** %1325 to i32
  call void @getReuseDistance(i32 %reuse.cast243)
  %1326 = load i8** %1325, align 4, !tbaa !28
  %1327 = getelementptr inbounds i8* %1326, i32 -12
  %1328 = bitcast i8* %1327 to %"struct.std::basic_string<char, std::char_traits<char>, std::allocator<char> >::_Rep"*
  %1329 = icmp eq i8* %1327, bitcast ([0 x i32]* @_ZNSs4_Rep20_S_empty_rep_storageE to i8*)
  br i1 %1329, label %1342, label %1330, !prof !31

; <label>:1330                                    ; preds = %1323
  %1331 = getelementptr inbounds i8* %1326, i32 -4
  %1332 = bitcast i8* %1331 to i32*
  br i1 icmp ne (i8* bitcast (i32 (i32*, void (i8*)*)* @__pthread_key_create to i8*), i8* null), label %1333, label %1337

; <label>:1333                                    ; preds = %1330
  %1334 = bitcast i32* %83 to i8*
  call void @llvm.lifetime.start(i64 4, i8* %1334)
  %1335 = atomicrmw volatile add i32* %1332, i32 -1 acq_rel
  %reuse.cast244 = ptrtoint i32* %83 to i32
  call void @getReuseDistance(i32 %reuse.cast244)
  store i32 %1335, i32* %83, align 4
  %reuse.cast245 = ptrtoint i32* %83 to i32
  call void @getReuseDistance(i32 %reuse.cast245)
  %1336 = load volatile i32* %83, align 4
  call void @llvm.lifetime.end(i64 4, i8* %1334)
  br label %_ZN9__gnu_cxxL27__exchange_and_add_dispatchEPii.exit.i.i.i301

; <label>:1337                                    ; preds = %1330
  %reuse.cast246 = ptrtoint i32* %1332 to i32
  call void @getReuseDistance(i32 %reuse.cast246)
  %1338 = load i32* %1332, align 4, !tbaa !21
  %1339 = add nsw i32 %1338, -1
  %reuse.cast247 = ptrtoint i32* %1332 to i32
  call void @getReuseDistance(i32 %reuse.cast247)
  store i32 %1339, i32* %1332, align 4, !tbaa !21
  br label %_ZN9__gnu_cxxL27__exchange_and_add_dispatchEPii.exit.i.i.i301

_ZN9__gnu_cxxL27__exchange_and_add_dispatchEPii.exit.i.i.i301: ; preds = %1337, %1333
  %.0.i.i.i.i300 = phi i32 [ %1336, %1333 ], [ %1338, %1337 ]
  %1340 = icmp slt i32 %.0.i.i.i.i300, 1
  br i1 %1340, label %1341, label %1342

; <label>:1341                                    ; preds = %_ZN9__gnu_cxxL27__exchange_and_add_dispatchEPii.exit.i.i.i301
  call void @_ZNSs4_Rep10_M_destroyERKSaIcE(%"struct.std::basic_string<char, std::char_traits<char>, std::allocator<char> >::_Rep"* %1328, %"class.std::allocator"* dereferenceable(1) %84) #1
  br label %1342

; <label>:1342                                    ; preds = %1341, %_ZN9__gnu_cxxL27__exchange_and_add_dispatchEPii.exit.i.i.i301, %1323
  call void @llvm.lifetime.end(i64 1, i8* %1324)
  invoke void @_ZNSsC1EPKcRKSaIcE(%"class.std::basic_string"* %293, i8* getelementptr inbounds ([14 x i8]* @.str27, i32 0, i32 0), %"class.std::allocator"* dereferenceable(1) %294)
          to label %1343 unwind label %2669

; <label>:1343                                    ; preds = %1342
  %1344 = invoke %class.YAML_Element* @_ZN12YAML_Element3getERKSs(%class.YAML_Element* %643, %"class.std::basic_string"* dereferenceable(4) %293)
          to label %1345 unwind label %2673

; <label>:1345                                    ; preds = %1343
  invoke void @_ZNSsC1EPKcRKSaIcE(%"class.std::basic_string"* %295, i8* getelementptr inbounds ([9 x i8]* @.str23, i32 0, i32 0), %"class.std::allocator"* dereferenceable(1) %296)
          to label %1346 unwind label %2677

; <label>:1346                                    ; preds = %1345
  %1347 = invoke %class.YAML_Element* @_ZN12YAML_Element3addERKSsd(%class.YAML_Element* %1344, %"class.std::basic_string"* dereferenceable(4) %295, double %560)
          to label %1348 unwind label %2681

; <label>:1348                                    ; preds = %1346
  %1349 = getelementptr inbounds %"class.std::allocator"* %76, i32 0, i32 0
  call void @llvm.lifetime.start(i64 1, i8* %1349)
  %1350 = getelementptr inbounds %"class.std::basic_string"* %295, i32 0, i32 0, i32 0
  %reuse.cast248 = ptrtoint i8** %1350 to i32
  call void @getReuseDistance(i32 %reuse.cast248)
  %1351 = load i8** %1350, align 4, !tbaa !28
  %1352 = getelementptr inbounds i8* %1351, i32 -12
  %1353 = bitcast i8* %1352 to %"struct.std::basic_string<char, std::char_traits<char>, std::allocator<char> >::_Rep"*
  %1354 = icmp eq i8* %1352, bitcast ([0 x i32]* @_ZNSs4_Rep20_S_empty_rep_storageE to i8*)
  br i1 %1354, label %1367, label %1355, !prof !31

; <label>:1355                                    ; preds = %1348
  %1356 = getelementptr inbounds i8* %1351, i32 -4
  %1357 = bitcast i8* %1356 to i32*
  br i1 icmp ne (i8* bitcast (i32 (i32*, void (i8*)*)* @__pthread_key_create to i8*), i8* null), label %1358, label %1362

; <label>:1358                                    ; preds = %1355
  %1359 = bitcast i32* %75 to i8*
  call void @llvm.lifetime.start(i64 4, i8* %1359)
  %1360 = atomicrmw volatile add i32* %1357, i32 -1 acq_rel
  %reuse.cast249 = ptrtoint i32* %75 to i32
  call void @getReuseDistance(i32 %reuse.cast249)
  store i32 %1360, i32* %75, align 4
  %reuse.cast250 = ptrtoint i32* %75 to i32
  call void @getReuseDistance(i32 %reuse.cast250)
  %1361 = load volatile i32* %75, align 4
  call void @llvm.lifetime.end(i64 4, i8* %1359)
  br label %_ZN9__gnu_cxxL27__exchange_and_add_dispatchEPii.exit.i.i.i313

; <label>:1362                                    ; preds = %1355
  %reuse.cast251 = ptrtoint i32* %1357 to i32
  call void @getReuseDistance(i32 %reuse.cast251)
  %1363 = load i32* %1357, align 4, !tbaa !21
  %1364 = add nsw i32 %1363, -1
  %reuse.cast252 = ptrtoint i32* %1357 to i32
  call void @getReuseDistance(i32 %reuse.cast252)
  store i32 %1364, i32* %1357, align 4, !tbaa !21
  br label %_ZN9__gnu_cxxL27__exchange_and_add_dispatchEPii.exit.i.i.i313

_ZN9__gnu_cxxL27__exchange_and_add_dispatchEPii.exit.i.i.i313: ; preds = %1362, %1358
  %.0.i.i.i.i312 = phi i32 [ %1361, %1358 ], [ %1363, %1362 ]
  %1365 = icmp slt i32 %.0.i.i.i.i312, 1
  br i1 %1365, label %1366, label %1367

; <label>:1366                                    ; preds = %_ZN9__gnu_cxxL27__exchange_and_add_dispatchEPii.exit.i.i.i313
  call void @_ZNSs4_Rep10_M_destroyERKSaIcE(%"struct.std::basic_string<char, std::char_traits<char>, std::allocator<char> >::_Rep"* %1353, %"class.std::allocator"* dereferenceable(1) %76) #1
  br label %1367

; <label>:1367                                    ; preds = %1366, %_ZN9__gnu_cxxL27__exchange_and_add_dispatchEPii.exit.i.i.i313, %1348
  call void @llvm.lifetime.end(i64 1, i8* %1349)
  %1368 = getelementptr inbounds %"class.std::allocator"* %72, i32 0, i32 0
  call void @llvm.lifetime.start(i64 1, i8* %1368)
  %1369 = getelementptr inbounds %"class.std::basic_string"* %293, i32 0, i32 0, i32 0
  %reuse.cast253 = ptrtoint i8** %1369 to i32
  call void @getReuseDistance(i32 %reuse.cast253)
  %1370 = load i8** %1369, align 4, !tbaa !28
  %1371 = getelementptr inbounds i8* %1370, i32 -12
  %1372 = bitcast i8* %1371 to %"struct.std::basic_string<char, std::char_traits<char>, std::allocator<char> >::_Rep"*
  %1373 = icmp eq i8* %1371, bitcast ([0 x i32]* @_ZNSs4_Rep20_S_empty_rep_storageE to i8*)
  br i1 %1373, label %1386, label %1374, !prof !31

; <label>:1374                                    ; preds = %1367
  %1375 = getelementptr inbounds i8* %1370, i32 -4
  %1376 = bitcast i8* %1375 to i32*
  br i1 icmp ne (i8* bitcast (i32 (i32*, void (i8*)*)* @__pthread_key_create to i8*), i8* null), label %1377, label %1381

; <label>:1377                                    ; preds = %1374
  %1378 = bitcast i32* %71 to i8*
  call void @llvm.lifetime.start(i64 4, i8* %1378)
  %1379 = atomicrmw volatile add i32* %1376, i32 -1 acq_rel
  %reuse.cast254 = ptrtoint i32* %71 to i32
  call void @getReuseDistance(i32 %reuse.cast254)
  store i32 %1379, i32* %71, align 4
  %reuse.cast255 = ptrtoint i32* %71 to i32
  call void @getReuseDistance(i32 %reuse.cast255)
  %1380 = load volatile i32* %71, align 4
  call void @llvm.lifetime.end(i64 4, i8* %1378)
  br label %_ZN9__gnu_cxxL27__exchange_and_add_dispatchEPii.exit.i.i.i319

; <label>:1381                                    ; preds = %1374
  %reuse.cast256 = ptrtoint i32* %1376 to i32
  call void @getReuseDistance(i32 %reuse.cast256)
  %1382 = load i32* %1376, align 4, !tbaa !21
  %1383 = add nsw i32 %1382, -1
  %reuse.cast257 = ptrtoint i32* %1376 to i32
  call void @getReuseDistance(i32 %reuse.cast257)
  store i32 %1383, i32* %1376, align 4, !tbaa !21
  br label %_ZN9__gnu_cxxL27__exchange_and_add_dispatchEPii.exit.i.i.i319

_ZN9__gnu_cxxL27__exchange_and_add_dispatchEPii.exit.i.i.i319: ; preds = %1381, %1377
  %.0.i.i.i.i318 = phi i32 [ %1380, %1377 ], [ %1382, %1381 ]
  %1384 = icmp slt i32 %.0.i.i.i.i318, 1
  br i1 %1384, label %1385, label %1386

; <label>:1385                                    ; preds = %_ZN9__gnu_cxxL27__exchange_and_add_dispatchEPii.exit.i.i.i319
  call void @_ZNSs4_Rep10_M_destroyERKSaIcE(%"struct.std::basic_string<char, std::char_traits<char>, std::allocator<char> >::_Rep"* %1372, %"class.std::allocator"* dereferenceable(1) %72) #1
  br label %1386

; <label>:1386                                    ; preds = %1385, %_ZN9__gnu_cxxL27__exchange_and_add_dispatchEPii.exit.i.i.i319, %1367
  call void @llvm.lifetime.end(i64 1, i8* %1368)
  invoke void @_ZNSsC1EPKcRKSaIcE(%"class.std::basic_string"* %297, i8* getelementptr inbounds ([14 x i8]* @.str27, i32 0, i32 0), %"class.std::allocator"* dereferenceable(1) %298)
          to label %1387 unwind label %2721

; <label>:1387                                    ; preds = %1386
  %1388 = invoke %class.YAML_Element* @_ZN12YAML_Element3getERKSs(%class.YAML_Element* %643, %"class.std::basic_string"* dereferenceable(4) %297)
          to label %1389 unwind label %2725

; <label>:1389                                    ; preds = %1387
  invoke void @_ZNSsC1EPKcRKSaIcE(%"class.std::basic_string"* %299, i8* getelementptr inbounds ([9 x i8]* @.str24, i32 0, i32 0), %"class.std::allocator"* dereferenceable(1) %300)
          to label %1390 unwind label %2729

; <label>:1390                                    ; preds = %1389
  %1391 = invoke %class.YAML_Element* @_ZN12YAML_Element3addERKSsd(%class.YAML_Element* %1388, %"class.std::basic_string"* dereferenceable(4) %299, double %554)
          to label %1392 unwind label %2733

; <label>:1392                                    ; preds = %1390
  %1393 = getelementptr inbounds %"class.std::allocator"* %64, i32 0, i32 0
  call void @llvm.lifetime.start(i64 1, i8* %1393)
  %1394 = getelementptr inbounds %"class.std::basic_string"* %299, i32 0, i32 0, i32 0
  %reuse.cast258 = ptrtoint i8** %1394 to i32
  call void @getReuseDistance(i32 %reuse.cast258)
  %1395 = load i8** %1394, align 4, !tbaa !28
  %1396 = getelementptr inbounds i8* %1395, i32 -12
  %1397 = bitcast i8* %1396 to %"struct.std::basic_string<char, std::char_traits<char>, std::allocator<char> >::_Rep"*
  %1398 = icmp eq i8* %1396, bitcast ([0 x i32]* @_ZNSs4_Rep20_S_empty_rep_storageE to i8*)
  br i1 %1398, label %1411, label %1399, !prof !31

; <label>:1399                                    ; preds = %1392
  %1400 = getelementptr inbounds i8* %1395, i32 -4
  %1401 = bitcast i8* %1400 to i32*
  br i1 icmp ne (i8* bitcast (i32 (i32*, void (i8*)*)* @__pthread_key_create to i8*), i8* null), label %1402, label %1406

; <label>:1402                                    ; preds = %1399
  %1403 = bitcast i32* %63 to i8*
  call void @llvm.lifetime.start(i64 4, i8* %1403)
  %1404 = atomicrmw volatile add i32* %1401, i32 -1 acq_rel
  %reuse.cast259 = ptrtoint i32* %63 to i32
  call void @getReuseDistance(i32 %reuse.cast259)
  store i32 %1404, i32* %63, align 4
  %reuse.cast260 = ptrtoint i32* %63 to i32
  call void @getReuseDistance(i32 %reuse.cast260)
  %1405 = load volatile i32* %63, align 4
  call void @llvm.lifetime.end(i64 4, i8* %1403)
  br label %_ZN9__gnu_cxxL27__exchange_and_add_dispatchEPii.exit.i.i.i331

; <label>:1406                                    ; preds = %1399
  %reuse.cast261 = ptrtoint i32* %1401 to i32
  call void @getReuseDistance(i32 %reuse.cast261)
  %1407 = load i32* %1401, align 4, !tbaa !21
  %1408 = add nsw i32 %1407, -1
  %reuse.cast262 = ptrtoint i32* %1401 to i32
  call void @getReuseDistance(i32 %reuse.cast262)
  store i32 %1408, i32* %1401, align 4, !tbaa !21
  br label %_ZN9__gnu_cxxL27__exchange_and_add_dispatchEPii.exit.i.i.i331

_ZN9__gnu_cxxL27__exchange_and_add_dispatchEPii.exit.i.i.i331: ; preds = %1406, %1402
  %.0.i.i.i.i330 = phi i32 [ %1405, %1402 ], [ %1407, %1406 ]
  %1409 = icmp slt i32 %.0.i.i.i.i330, 1
  br i1 %1409, label %1410, label %1411

; <label>:1410                                    ; preds = %_ZN9__gnu_cxxL27__exchange_and_add_dispatchEPii.exit.i.i.i331
  call void @_ZNSs4_Rep10_M_destroyERKSaIcE(%"struct.std::basic_string<char, std::char_traits<char>, std::allocator<char> >::_Rep"* %1397, %"class.std::allocator"* dereferenceable(1) %64) #1
  br label %1411

; <label>:1411                                    ; preds = %1410, %_ZN9__gnu_cxxL27__exchange_and_add_dispatchEPii.exit.i.i.i331, %1392
  call void @llvm.lifetime.end(i64 1, i8* %1393)
  %1412 = getelementptr inbounds %"class.std::allocator"* %60, i32 0, i32 0
  call void @llvm.lifetime.start(i64 1, i8* %1412)
  %1413 = getelementptr inbounds %"class.std::basic_string"* %297, i32 0, i32 0, i32 0
  %reuse.cast263 = ptrtoint i8** %1413 to i32
  call void @getReuseDistance(i32 %reuse.cast263)
  %1414 = load i8** %1413, align 4, !tbaa !28
  %1415 = getelementptr inbounds i8* %1414, i32 -12
  %1416 = bitcast i8* %1415 to %"struct.std::basic_string<char, std::char_traits<char>, std::allocator<char> >::_Rep"*
  %1417 = icmp eq i8* %1415, bitcast ([0 x i32]* @_ZNSs4_Rep20_S_empty_rep_storageE to i8*)
  br i1 %1417, label %1430, label %1418, !prof !31

; <label>:1418                                    ; preds = %1411
  %1419 = getelementptr inbounds i8* %1414, i32 -4
  %1420 = bitcast i8* %1419 to i32*
  br i1 icmp ne (i8* bitcast (i32 (i32*, void (i8*)*)* @__pthread_key_create to i8*), i8* null), label %1421, label %1425

; <label>:1421                                    ; preds = %1418
  %1422 = bitcast i32* %59 to i8*
  call void @llvm.lifetime.start(i64 4, i8* %1422)
  %1423 = atomicrmw volatile add i32* %1420, i32 -1 acq_rel
  %reuse.cast264 = ptrtoint i32* %59 to i32
  call void @getReuseDistance(i32 %reuse.cast264)
  store i32 %1423, i32* %59, align 4
  %reuse.cast265 = ptrtoint i32* %59 to i32
  call void @getReuseDistance(i32 %reuse.cast265)
  %1424 = load volatile i32* %59, align 4
  call void @llvm.lifetime.end(i64 4, i8* %1422)
  br label %_ZN9__gnu_cxxL27__exchange_and_add_dispatchEPii.exit.i.i.i337

; <label>:1425                                    ; preds = %1418
  %reuse.cast266 = ptrtoint i32* %1420 to i32
  call void @getReuseDistance(i32 %reuse.cast266)
  %1426 = load i32* %1420, align 4, !tbaa !21
  %1427 = add nsw i32 %1426, -1
  %reuse.cast267 = ptrtoint i32* %1420 to i32
  call void @getReuseDistance(i32 %reuse.cast267)
  store i32 %1427, i32* %1420, align 4, !tbaa !21
  br label %_ZN9__gnu_cxxL27__exchange_and_add_dispatchEPii.exit.i.i.i337

_ZN9__gnu_cxxL27__exchange_and_add_dispatchEPii.exit.i.i.i337: ; preds = %1425, %1421
  %.0.i.i.i.i336 = phi i32 [ %1424, %1421 ], [ %1426, %1425 ]
  %1428 = icmp slt i32 %.0.i.i.i.i336, 1
  br i1 %1428, label %1429, label %1430

; <label>:1429                                    ; preds = %_ZN9__gnu_cxxL27__exchange_and_add_dispatchEPii.exit.i.i.i337
  call void @_ZNSs4_Rep10_M_destroyERKSaIcE(%"struct.std::basic_string<char, std::char_traits<char>, std::allocator<char> >::_Rep"* %1416, %"class.std::allocator"* dereferenceable(1) %60) #1
  br label %1430

; <label>:1430                                    ; preds = %1429, %_ZN9__gnu_cxxL27__exchange_and_add_dispatchEPii.exit.i.i.i337, %1411
  call void @llvm.lifetime.end(i64 1, i8* %1412)
  invoke void @_ZNSsC1EPKcRKSaIcE(%"class.std::basic_string"* %301, i8* getelementptr inbounds ([14 x i8]* @.str27, i32 0, i32 0), %"class.std::allocator"* dereferenceable(1) %302)
          to label %1431 unwind label %2773

; <label>:1431                                    ; preds = %1430
  %1432 = invoke %class.YAML_Element* @_ZN12YAML_Element3getERKSs(%class.YAML_Element* %643, %"class.std::basic_string"* dereferenceable(4) %301)
          to label %1433 unwind label %2777

; <label>:1433                                    ; preds = %1431
  invoke void @_ZNSsC1EPKcRKSaIcE(%"class.std::basic_string"* %303, i8* getelementptr inbounds ([9 x i8]* @.str25, i32 0, i32 0), %"class.std::allocator"* dereferenceable(1) %304)
          to label %1434 unwind label %2781

; <label>:1434                                    ; preds = %1433
  %1435 = invoke %class.YAML_Element* @_ZN12YAML_Element3addERKSsd(%class.YAML_Element* %1432, %"class.std::basic_string"* dereferenceable(4) %303, double %556)
          to label %1436 unwind label %2785

; <label>:1436                                    ; preds = %1434
  %1437 = getelementptr inbounds %"class.std::allocator"* %52, i32 0, i32 0
  call void @llvm.lifetime.start(i64 1, i8* %1437)
  %1438 = getelementptr inbounds %"class.std::basic_string"* %303, i32 0, i32 0, i32 0
  %reuse.cast268 = ptrtoint i8** %1438 to i32
  call void @getReuseDistance(i32 %reuse.cast268)
  %1439 = load i8** %1438, align 4, !tbaa !28
  %1440 = getelementptr inbounds i8* %1439, i32 -12
  %1441 = bitcast i8* %1440 to %"struct.std::basic_string<char, std::char_traits<char>, std::allocator<char> >::_Rep"*
  %1442 = icmp eq i8* %1440, bitcast ([0 x i32]* @_ZNSs4_Rep20_S_empty_rep_storageE to i8*)
  br i1 %1442, label %1455, label %1443, !prof !31

; <label>:1443                                    ; preds = %1436
  %1444 = getelementptr inbounds i8* %1439, i32 -4
  %1445 = bitcast i8* %1444 to i32*
  br i1 icmp ne (i8* bitcast (i32 (i32*, void (i8*)*)* @__pthread_key_create to i8*), i8* null), label %1446, label %1450

; <label>:1446                                    ; preds = %1443
  %1447 = bitcast i32* %51 to i8*
  call void @llvm.lifetime.start(i64 4, i8* %1447)
  %1448 = atomicrmw volatile add i32* %1445, i32 -1 acq_rel
  %reuse.cast269 = ptrtoint i32* %51 to i32
  call void @getReuseDistance(i32 %reuse.cast269)
  store i32 %1448, i32* %51, align 4
  %reuse.cast270 = ptrtoint i32* %51 to i32
  call void @getReuseDistance(i32 %reuse.cast270)
  %1449 = load volatile i32* %51, align 4
  call void @llvm.lifetime.end(i64 4, i8* %1447)
  br label %_ZN9__gnu_cxxL27__exchange_and_add_dispatchEPii.exit.i.i.i349

; <label>:1450                                    ; preds = %1443
  %reuse.cast271 = ptrtoint i32* %1445 to i32
  call void @getReuseDistance(i32 %reuse.cast271)
  %1451 = load i32* %1445, align 4, !tbaa !21
  %1452 = add nsw i32 %1451, -1
  %reuse.cast272 = ptrtoint i32* %1445 to i32
  call void @getReuseDistance(i32 %reuse.cast272)
  store i32 %1452, i32* %1445, align 4, !tbaa !21
  br label %_ZN9__gnu_cxxL27__exchange_and_add_dispatchEPii.exit.i.i.i349

_ZN9__gnu_cxxL27__exchange_and_add_dispatchEPii.exit.i.i.i349: ; preds = %1450, %1446
  %.0.i.i.i.i348 = phi i32 [ %1449, %1446 ], [ %1451, %1450 ]
  %1453 = icmp slt i32 %.0.i.i.i.i348, 1
  br i1 %1453, label %1454, label %1455

; <label>:1454                                    ; preds = %_ZN9__gnu_cxxL27__exchange_and_add_dispatchEPii.exit.i.i.i349
  call void @_ZNSs4_Rep10_M_destroyERKSaIcE(%"struct.std::basic_string<char, std::char_traits<char>, std::allocator<char> >::_Rep"* %1441, %"class.std::allocator"* dereferenceable(1) %52) #1
  br label %1455

; <label>:1455                                    ; preds = %1454, %_ZN9__gnu_cxxL27__exchange_and_add_dispatchEPii.exit.i.i.i349, %1436
  call void @llvm.lifetime.end(i64 1, i8* %1437)
  %1456 = getelementptr inbounds %"class.std::allocator"* %48, i32 0, i32 0
  call void @llvm.lifetime.start(i64 1, i8* %1456)
  %1457 = getelementptr inbounds %"class.std::basic_string"* %301, i32 0, i32 0, i32 0
  %reuse.cast273 = ptrtoint i8** %1457 to i32
  call void @getReuseDistance(i32 %reuse.cast273)
  %1458 = load i8** %1457, align 4, !tbaa !28
  %1459 = getelementptr inbounds i8* %1458, i32 -12
  %1460 = bitcast i8* %1459 to %"struct.std::basic_string<char, std::char_traits<char>, std::allocator<char> >::_Rep"*
  %1461 = icmp eq i8* %1459, bitcast ([0 x i32]* @_ZNSs4_Rep20_S_empty_rep_storageE to i8*)
  br i1 %1461, label %1474, label %1462, !prof !31

; <label>:1462                                    ; preds = %1455
  %1463 = getelementptr inbounds i8* %1458, i32 -4
  %1464 = bitcast i8* %1463 to i32*
  br i1 icmp ne (i8* bitcast (i32 (i32*, void (i8*)*)* @__pthread_key_create to i8*), i8* null), label %1465, label %1469

; <label>:1465                                    ; preds = %1462
  %1466 = bitcast i32* %47 to i8*
  call void @llvm.lifetime.start(i64 4, i8* %1466)
  %1467 = atomicrmw volatile add i32* %1464, i32 -1 acq_rel
  %reuse.cast274 = ptrtoint i32* %47 to i32
  call void @getReuseDistance(i32 %reuse.cast274)
  store i32 %1467, i32* %47, align 4
  %reuse.cast275 = ptrtoint i32* %47 to i32
  call void @getReuseDistance(i32 %reuse.cast275)
  %1468 = load volatile i32* %47, align 4
  call void @llvm.lifetime.end(i64 4, i8* %1466)
  br label %_ZN9__gnu_cxxL27__exchange_and_add_dispatchEPii.exit.i.i.i355

; <label>:1469                                    ; preds = %1462
  %reuse.cast276 = ptrtoint i32* %1464 to i32
  call void @getReuseDistance(i32 %reuse.cast276)
  %1470 = load i32* %1464, align 4, !tbaa !21
  %1471 = add nsw i32 %1470, -1
  %reuse.cast277 = ptrtoint i32* %1464 to i32
  call void @getReuseDistance(i32 %reuse.cast277)
  store i32 %1471, i32* %1464, align 4, !tbaa !21
  br label %_ZN9__gnu_cxxL27__exchange_and_add_dispatchEPii.exit.i.i.i355

_ZN9__gnu_cxxL27__exchange_and_add_dispatchEPii.exit.i.i.i355: ; preds = %1469, %1465
  %.0.i.i.i.i354 = phi i32 [ %1468, %1465 ], [ %1470, %1469 ]
  %1472 = icmp slt i32 %.0.i.i.i.i354, 1
  br i1 %1472, label %1473, label %1474

; <label>:1473                                    ; preds = %_ZN9__gnu_cxxL27__exchange_and_add_dispatchEPii.exit.i.i.i355
  call void @_ZNSs4_Rep10_M_destroyERKSaIcE(%"struct.std::basic_string<char, std::char_traits<char>, std::allocator<char> >::_Rep"* %1460, %"class.std::allocator"* dereferenceable(1) %48) #1
  br label %1474

; <label>:1474                                    ; preds = %1473, %_ZN9__gnu_cxxL27__exchange_and_add_dispatchEPii.exit.i.i.i355, %1455
  call void @llvm.lifetime.end(i64 1, i8* %1456)
  invoke void @_ZNSsC1EPKcRKSaIcE(%"class.std::basic_string"* %305, i8* getelementptr inbounds ([14 x i8]* @.str27, i32 0, i32 0), %"class.std::allocator"* dereferenceable(1) %306)
          to label %1475 unwind label %2825

; <label>:1475                                    ; preds = %1474
  %1476 = invoke %class.YAML_Element* @_ZN12YAML_Element3getERKSs(%class.YAML_Element* %643, %"class.std::basic_string"* dereferenceable(4) %305)
          to label %1477 unwind label %2829

; <label>:1477                                    ; preds = %1475
  invoke void @_ZNSsC1EPKcRKSaIcE(%"class.std::basic_string"* %307, i8* getelementptr inbounds ([9 x i8]* @.str26, i32 0, i32 0), %"class.std::allocator"* dereferenceable(1) %308)
          to label %1478 unwind label %2833

; <label>:1478                                    ; preds = %1477
  %1479 = invoke %class.YAML_Element* @_ZN12YAML_Element3addERKSsd(%class.YAML_Element* %1476, %"class.std::basic_string"* dereferenceable(4) %307, double %558)
          to label %1480 unwind label %2837

; <label>:1480                                    ; preds = %1478
  %1481 = getelementptr inbounds %"class.std::allocator"* %40, i32 0, i32 0
  call void @llvm.lifetime.start(i64 1, i8* %1481)
  %1482 = getelementptr inbounds %"class.std::basic_string"* %307, i32 0, i32 0, i32 0
  %reuse.cast278 = ptrtoint i8** %1482 to i32
  call void @getReuseDistance(i32 %reuse.cast278)
  %1483 = load i8** %1482, align 4, !tbaa !28
  %1484 = getelementptr inbounds i8* %1483, i32 -12
  %1485 = bitcast i8* %1484 to %"struct.std::basic_string<char, std::char_traits<char>, std::allocator<char> >::_Rep"*
  %1486 = icmp eq i8* %1484, bitcast ([0 x i32]* @_ZNSs4_Rep20_S_empty_rep_storageE to i8*)
  br i1 %1486, label %1499, label %1487, !prof !31

; <label>:1487                                    ; preds = %1480
  %1488 = getelementptr inbounds i8* %1483, i32 -4
  %1489 = bitcast i8* %1488 to i32*
  br i1 icmp ne (i8* bitcast (i32 (i32*, void (i8*)*)* @__pthread_key_create to i8*), i8* null), label %1490, label %1494

; <label>:1490                                    ; preds = %1487
  %1491 = bitcast i32* %39 to i8*
  call void @llvm.lifetime.start(i64 4, i8* %1491)
  %1492 = atomicrmw volatile add i32* %1489, i32 -1 acq_rel
  %reuse.cast279 = ptrtoint i32* %39 to i32
  call void @getReuseDistance(i32 %reuse.cast279)
  store i32 %1492, i32* %39, align 4
  %reuse.cast280 = ptrtoint i32* %39 to i32
  call void @getReuseDistance(i32 %reuse.cast280)
  %1493 = load volatile i32* %39, align 4
  call void @llvm.lifetime.end(i64 4, i8* %1491)
  br label %_ZN9__gnu_cxxL27__exchange_and_add_dispatchEPii.exit.i.i.i367

; <label>:1494                                    ; preds = %1487
  %reuse.cast281 = ptrtoint i32* %1489 to i32
  call void @getReuseDistance(i32 %reuse.cast281)
  %1495 = load i32* %1489, align 4, !tbaa !21
  %1496 = add nsw i32 %1495, -1
  %reuse.cast282 = ptrtoint i32* %1489 to i32
  call void @getReuseDistance(i32 %reuse.cast282)
  store i32 %1496, i32* %1489, align 4, !tbaa !21
  br label %_ZN9__gnu_cxxL27__exchange_and_add_dispatchEPii.exit.i.i.i367

_ZN9__gnu_cxxL27__exchange_and_add_dispatchEPii.exit.i.i.i367: ; preds = %1494, %1490
  %.0.i.i.i.i366 = phi i32 [ %1493, %1490 ], [ %1495, %1494 ]
  %1497 = icmp slt i32 %.0.i.i.i.i366, 1
  br i1 %1497, label %1498, label %1499

; <label>:1498                                    ; preds = %_ZN9__gnu_cxxL27__exchange_and_add_dispatchEPii.exit.i.i.i367
  call void @_ZNSs4_Rep10_M_destroyERKSaIcE(%"struct.std::basic_string<char, std::char_traits<char>, std::allocator<char> >::_Rep"* %1485, %"class.std::allocator"* dereferenceable(1) %40) #1
  br label %1499

; <label>:1499                                    ; preds = %1498, %_ZN9__gnu_cxxL27__exchange_and_add_dispatchEPii.exit.i.i.i367, %1480
  call void @llvm.lifetime.end(i64 1, i8* %1481)
  %1500 = getelementptr inbounds %"class.std::allocator"* %36, i32 0, i32 0
  call void @llvm.lifetime.start(i64 1, i8* %1500)
  %1501 = getelementptr inbounds %"class.std::basic_string"* %305, i32 0, i32 0, i32 0
  %reuse.cast283 = ptrtoint i8** %1501 to i32
  call void @getReuseDistance(i32 %reuse.cast283)
  %1502 = load i8** %1501, align 4, !tbaa !28
  %1503 = getelementptr inbounds i8* %1502, i32 -12
  %1504 = bitcast i8* %1503 to %"struct.std::basic_string<char, std::char_traits<char>, std::allocator<char> >::_Rep"*
  %1505 = icmp eq i8* %1503, bitcast ([0 x i32]* @_ZNSs4_Rep20_S_empty_rep_storageE to i8*)
  br i1 %1505, label %1518, label %1506, !prof !31

; <label>:1506                                    ; preds = %1499
  %1507 = getelementptr inbounds i8* %1502, i32 -4
  %1508 = bitcast i8* %1507 to i32*
  br i1 icmp ne (i8* bitcast (i32 (i32*, void (i8*)*)* @__pthread_key_create to i8*), i8* null), label %1509, label %1513

; <label>:1509                                    ; preds = %1506
  %1510 = bitcast i32* %35 to i8*
  call void @llvm.lifetime.start(i64 4, i8* %1510)
  %1511 = atomicrmw volatile add i32* %1508, i32 -1 acq_rel
  %reuse.cast284 = ptrtoint i32* %35 to i32
  call void @getReuseDistance(i32 %reuse.cast284)
  store i32 %1511, i32* %35, align 4
  %reuse.cast285 = ptrtoint i32* %35 to i32
  call void @getReuseDistance(i32 %reuse.cast285)
  %1512 = load volatile i32* %35, align 4
  call void @llvm.lifetime.end(i64 4, i8* %1510)
  br label %_ZN9__gnu_cxxL27__exchange_and_add_dispatchEPii.exit.i.i.i373

; <label>:1513                                    ; preds = %1506
  %reuse.cast286 = ptrtoint i32* %1508 to i32
  call void @getReuseDistance(i32 %reuse.cast286)
  %1514 = load i32* %1508, align 4, !tbaa !21
  %1515 = add nsw i32 %1514, -1
  %reuse.cast287 = ptrtoint i32* %1508 to i32
  call void @getReuseDistance(i32 %reuse.cast287)
  store i32 %1515, i32* %1508, align 4, !tbaa !21
  br label %_ZN9__gnu_cxxL27__exchange_and_add_dispatchEPii.exit.i.i.i373

_ZN9__gnu_cxxL27__exchange_and_add_dispatchEPii.exit.i.i.i373: ; preds = %1513, %1509
  %.0.i.i.i.i372 = phi i32 [ %1512, %1509 ], [ %1514, %1513 ]
  %1516 = icmp slt i32 %.0.i.i.i.i372, 1
  br i1 %1516, label %1517, label %1518

; <label>:1517                                    ; preds = %_ZN9__gnu_cxxL27__exchange_and_add_dispatchEPii.exit.i.i.i373
  call void @_ZNSs4_Rep10_M_destroyERKSaIcE(%"struct.std::basic_string<char, std::char_traits<char>, std::allocator<char> >::_Rep"* %1504, %"class.std::allocator"* dereferenceable(1) %36) #1
  br label %1518

; <label>:1518                                    ; preds = %1517, %_ZN9__gnu_cxxL27__exchange_and_add_dispatchEPii.exit.i.i.i373, %1499
  call void @llvm.lifetime.end(i64 1, i8* %1500)
  invoke void @_ZNSsC1EPKcRKSaIcE(%"class.std::basic_string"* %309, i8* getelementptr inbounds ([15 x i8]* @.str28, i32 0, i32 0), %"class.std::allocator"* dereferenceable(1) %310)
          to label %1519 unwind label %2877

; <label>:1519                                    ; preds = %1518
  invoke void @_ZNSsC1EPKcRKSaIcE(%"class.std::basic_string"* %311, i8* getelementptr inbounds ([1 x i8]* @.str11, i32 0, i32 0), %"class.std::allocator"* dereferenceable(1) %312)
          to label %1520 unwind label %2881

; <label>:1520                                    ; preds = %1519
  %1521 = invoke %class.YAML_Element* @_ZN12YAML_Element3addERKSsS1_(%class.YAML_Element* %643, %"class.std::basic_string"* dereferenceable(4) %309, %"class.std::basic_string"* dereferenceable(4) %311)
          to label %1522 unwind label %2885

; <label>:1522                                    ; preds = %1520
  %1523 = getelementptr inbounds %"class.std::allocator"* %28, i32 0, i32 0
  call void @llvm.lifetime.start(i64 1, i8* %1523)
  %1524 = getelementptr inbounds %"class.std::basic_string"* %311, i32 0, i32 0, i32 0
  %reuse.cast288 = ptrtoint i8** %1524 to i32
  call void @getReuseDistance(i32 %reuse.cast288)
  %1525 = load i8** %1524, align 4, !tbaa !28
  %1526 = getelementptr inbounds i8* %1525, i32 -12
  %1527 = bitcast i8* %1526 to %"struct.std::basic_string<char, std::char_traits<char>, std::allocator<char> >::_Rep"*
  %1528 = icmp eq i8* %1526, bitcast ([0 x i32]* @_ZNSs4_Rep20_S_empty_rep_storageE to i8*)
  br i1 %1528, label %1541, label %1529, !prof !31

; <label>:1529                                    ; preds = %1522
  %1530 = getelementptr inbounds i8* %1525, i32 -4
  %1531 = bitcast i8* %1530 to i32*
  br i1 icmp ne (i8* bitcast (i32 (i32*, void (i8*)*)* @__pthread_key_create to i8*), i8* null), label %1532, label %1536

; <label>:1532                                    ; preds = %1529
  %1533 = bitcast i32* %27 to i8*
  call void @llvm.lifetime.start(i64 4, i8* %1533)
  %1534 = atomicrmw volatile add i32* %1531, i32 -1 acq_rel
  %reuse.cast289 = ptrtoint i32* %27 to i32
  call void @getReuseDistance(i32 %reuse.cast289)
  store i32 %1534, i32* %27, align 4
  %reuse.cast290 = ptrtoint i32* %27 to i32
  call void @getReuseDistance(i32 %reuse.cast290)
  %1535 = load volatile i32* %27, align 4
  call void @llvm.lifetime.end(i64 4, i8* %1533)
  br label %_ZN9__gnu_cxxL27__exchange_and_add_dispatchEPii.exit.i.i.i385

; <label>:1536                                    ; preds = %1529
  %reuse.cast291 = ptrtoint i32* %1531 to i32
  call void @getReuseDistance(i32 %reuse.cast291)
  %1537 = load i32* %1531, align 4, !tbaa !21
  %1538 = add nsw i32 %1537, -1
  %reuse.cast292 = ptrtoint i32* %1531 to i32
  call void @getReuseDistance(i32 %reuse.cast292)
  store i32 %1538, i32* %1531, align 4, !tbaa !21
  br label %_ZN9__gnu_cxxL27__exchange_and_add_dispatchEPii.exit.i.i.i385

_ZN9__gnu_cxxL27__exchange_and_add_dispatchEPii.exit.i.i.i385: ; preds = %1536, %1532
  %.0.i.i.i.i384 = phi i32 [ %1535, %1532 ], [ %1537, %1536 ]
  %1539 = icmp slt i32 %.0.i.i.i.i384, 1
  br i1 %1539, label %1540, label %1541

; <label>:1540                                    ; preds = %_ZN9__gnu_cxxL27__exchange_and_add_dispatchEPii.exit.i.i.i385
  call void @_ZNSs4_Rep10_M_destroyERKSaIcE(%"struct.std::basic_string<char, std::char_traits<char>, std::allocator<char> >::_Rep"* %1527, %"class.std::allocator"* dereferenceable(1) %28) #1
  br label %1541

; <label>:1541                                    ; preds = %1540, %_ZN9__gnu_cxxL27__exchange_and_add_dispatchEPii.exit.i.i.i385, %1522
  call void @llvm.lifetime.end(i64 1, i8* %1523)
  %1542 = getelementptr inbounds %"class.std::allocator"* %24, i32 0, i32 0
  call void @llvm.lifetime.start(i64 1, i8* %1542)
  %1543 = getelementptr inbounds %"class.std::basic_string"* %309, i32 0, i32 0, i32 0
  %reuse.cast293 = ptrtoint i8** %1543 to i32
  call void @getReuseDistance(i32 %reuse.cast293)
  %1544 = load i8** %1543, align 4, !tbaa !28
  %1545 = getelementptr inbounds i8* %1544, i32 -12
  %1546 = bitcast i8* %1545 to %"struct.std::basic_string<char, std::char_traits<char>, std::allocator<char> >::_Rep"*
  %1547 = icmp eq i8* %1545, bitcast ([0 x i32]* @_ZNSs4_Rep20_S_empty_rep_storageE to i8*)
  br i1 %1547, label %1560, label %1548, !prof !31

; <label>:1548                                    ; preds = %1541
  %1549 = getelementptr inbounds i8* %1544, i32 -4
  %1550 = bitcast i8* %1549 to i32*
  br i1 icmp ne (i8* bitcast (i32 (i32*, void (i8*)*)* @__pthread_key_create to i8*), i8* null), label %1551, label %1555

; <label>:1551                                    ; preds = %1548
  %1552 = bitcast i32* %23 to i8*
  call void @llvm.lifetime.start(i64 4, i8* %1552)
  %1553 = atomicrmw volatile add i32* %1550, i32 -1 acq_rel
  %reuse.cast294 = ptrtoint i32* %23 to i32
  call void @getReuseDistance(i32 %reuse.cast294)
  store i32 %1553, i32* %23, align 4
  %reuse.cast295 = ptrtoint i32* %23 to i32
  call void @getReuseDistance(i32 %reuse.cast295)
  %1554 = load volatile i32* %23, align 4
  call void @llvm.lifetime.end(i64 4, i8* %1552)
  br label %_ZN9__gnu_cxxL27__exchange_and_add_dispatchEPii.exit.i.i.i391

; <label>:1555                                    ; preds = %1548
  %reuse.cast296 = ptrtoint i32* %1550 to i32
  call void @getReuseDistance(i32 %reuse.cast296)
  %1556 = load i32* %1550, align 4, !tbaa !21
  %1557 = add nsw i32 %1556, -1
  %reuse.cast297 = ptrtoint i32* %1550 to i32
  call void @getReuseDistance(i32 %reuse.cast297)
  store i32 %1557, i32* %1550, align 4, !tbaa !21
  br label %_ZN9__gnu_cxxL27__exchange_and_add_dispatchEPii.exit.i.i.i391

_ZN9__gnu_cxxL27__exchange_and_add_dispatchEPii.exit.i.i.i391: ; preds = %1555, %1551
  %.0.i.i.i.i390 = phi i32 [ %1554, %1551 ], [ %1556, %1555 ]
  %1558 = icmp slt i32 %.0.i.i.i.i390, 1
  br i1 %1558, label %1559, label %1560

; <label>:1559                                    ; preds = %_ZN9__gnu_cxxL27__exchange_and_add_dispatchEPii.exit.i.i.i391
  call void @_ZNSs4_Rep10_M_destroyERKSaIcE(%"struct.std::basic_string<char, std::char_traits<char>, std::allocator<char> >::_Rep"* %1546, %"class.std::allocator"* dereferenceable(1) %24) #1
  br label %1560

; <label>:1560                                    ; preds = %1559, %_ZN9__gnu_cxxL27__exchange_and_add_dispatchEPii.exit.i.i.i391, %1541
  call void @llvm.lifetime.end(i64 1, i8* %1542)
  invoke void @_ZNSsC1EPKcRKSaIcE(%"class.std::basic_string"* %313, i8* getelementptr inbounds ([15 x i8]* @.str28, i32 0, i32 0), %"class.std::allocator"* dereferenceable(1) %314)
          to label %1561 unwind label %2925

; <label>:1561                                    ; preds = %1560
  %1562 = invoke %class.YAML_Element* @_ZN12YAML_Element3getERKSs(%class.YAML_Element* %643, %"class.std::basic_string"* dereferenceable(4) %313)
          to label %1563 unwind label %2929

; <label>:1563                                    ; preds = %1561
  invoke void @_ZNSsC1EPKcRKSaIcE(%"class.std::basic_string"* %315, i8* getelementptr inbounds ([9 x i8]* @.str23, i32 0, i32 0), %"class.std::allocator"* dereferenceable(1) %316)
          to label %1564 unwind label %2933

; <label>:1564                                    ; preds = %1563
  %reuse.cast298 = ptrtoint double* %511 to i32
  call void @getReuseDistance(i32 %reuse.cast298)
  %1565 = load double* %511, align 8, !tbaa !22
  %1566 = fdiv double %560, %1565
  %1567 = fdiv double %1566, 1.000000e+06
  %1568 = invoke %class.YAML_Element* @_ZN12YAML_Element3addERKSsd(%class.YAML_Element* %1562, %"class.std::basic_string"* dereferenceable(4) %315, double %1567)
          to label %1569 unwind label %2937

; <label>:1569                                    ; preds = %1564
  %1570 = getelementptr inbounds %"class.std::allocator"* %16, i32 0, i32 0
  call void @llvm.lifetime.start(i64 1, i8* %1570)
  %1571 = getelementptr inbounds %"class.std::basic_string"* %315, i32 0, i32 0, i32 0
  %reuse.cast299 = ptrtoint i8** %1571 to i32
  call void @getReuseDistance(i32 %reuse.cast299)
  %1572 = load i8** %1571, align 4, !tbaa !28
  %1573 = getelementptr inbounds i8* %1572, i32 -12
  %1574 = bitcast i8* %1573 to %"struct.std::basic_string<char, std::char_traits<char>, std::allocator<char> >::_Rep"*
  %1575 = icmp eq i8* %1573, bitcast ([0 x i32]* @_ZNSs4_Rep20_S_empty_rep_storageE to i8*)
  br i1 %1575, label %1588, label %1576, !prof !31

; <label>:1576                                    ; preds = %1569
  %1577 = getelementptr inbounds i8* %1572, i32 -4
  %1578 = bitcast i8* %1577 to i32*
  br i1 icmp ne (i8* bitcast (i32 (i32*, void (i8*)*)* @__pthread_key_create to i8*), i8* null), label %1579, label %1583

; <label>:1579                                    ; preds = %1576
  %1580 = bitcast i32* %15 to i8*
  call void @llvm.lifetime.start(i64 4, i8* %1580)
  %1581 = atomicrmw volatile add i32* %1578, i32 -1 acq_rel
  %reuse.cast300 = ptrtoint i32* %15 to i32
  call void @getReuseDistance(i32 %reuse.cast300)
  store i32 %1581, i32* %15, align 4
  %reuse.cast301 = ptrtoint i32* %15 to i32
  call void @getReuseDistance(i32 %reuse.cast301)
  %1582 = load volatile i32* %15, align 4
  call void @llvm.lifetime.end(i64 4, i8* %1580)
  br label %_ZN9__gnu_cxxL27__exchange_and_add_dispatchEPii.exit.i.i.i403

; <label>:1583                                    ; preds = %1576
  %reuse.cast302 = ptrtoint i32* %1578 to i32
  call void @getReuseDistance(i32 %reuse.cast302)
  %1584 = load i32* %1578, align 4, !tbaa !21
  %1585 = add nsw i32 %1584, -1
  %reuse.cast303 = ptrtoint i32* %1578 to i32
  call void @getReuseDistance(i32 %reuse.cast303)
  store i32 %1585, i32* %1578, align 4, !tbaa !21
  br label %_ZN9__gnu_cxxL27__exchange_and_add_dispatchEPii.exit.i.i.i403

_ZN9__gnu_cxxL27__exchange_and_add_dispatchEPii.exit.i.i.i403: ; preds = %1583, %1579
  %.0.i.i.i.i402 = phi i32 [ %1582, %1579 ], [ %1584, %1583 ]
  %1586 = icmp slt i32 %.0.i.i.i.i402, 1
  br i1 %1586, label %1587, label %1588

; <label>:1587                                    ; preds = %_ZN9__gnu_cxxL27__exchange_and_add_dispatchEPii.exit.i.i.i403
  call void @_ZNSs4_Rep10_M_destroyERKSaIcE(%"struct.std::basic_string<char, std::char_traits<char>, std::allocator<char> >::_Rep"* %1574, %"class.std::allocator"* dereferenceable(1) %16) #1
  br label %1588

; <label>:1588                                    ; preds = %1587, %_ZN9__gnu_cxxL27__exchange_and_add_dispatchEPii.exit.i.i.i403, %1569
  call void @llvm.lifetime.end(i64 1, i8* %1570)
  %1589 = getelementptr inbounds %"class.std::allocator"* %14, i32 0, i32 0
  call void @llvm.lifetime.start(i64 1, i8* %1589)
  %1590 = getelementptr inbounds %"class.std::basic_string"* %313, i32 0, i32 0, i32 0
  %reuse.cast304 = ptrtoint i8** %1590 to i32
  call void @getReuseDistance(i32 %reuse.cast304)
  %1591 = load i8** %1590, align 4, !tbaa !28
  %1592 = getelementptr inbounds i8* %1591, i32 -12
  %1593 = bitcast i8* %1592 to %"struct.std::basic_string<char, std::char_traits<char>, std::allocator<char> >::_Rep"*
  %1594 = icmp eq i8* %1592, bitcast ([0 x i32]* @_ZNSs4_Rep20_S_empty_rep_storageE to i8*)
  br i1 %1594, label %1607, label %1595, !prof !31

; <label>:1595                                    ; preds = %1588
  %1596 = getelementptr inbounds i8* %1591, i32 -4
  %1597 = bitcast i8* %1596 to i32*
  br i1 icmp ne (i8* bitcast (i32 (i32*, void (i8*)*)* @__pthread_key_create to i8*), i8* null), label %1598, label %1602

; <label>:1598                                    ; preds = %1595
  %1599 = bitcast i32* %13 to i8*
  call void @llvm.lifetime.start(i64 4, i8* %1599)
  %1600 = atomicrmw volatile add i32* %1597, i32 -1 acq_rel
  %reuse.cast305 = ptrtoint i32* %13 to i32
  call void @getReuseDistance(i32 %reuse.cast305)
  store i32 %1600, i32* %13, align 4
  %reuse.cast306 = ptrtoint i32* %13 to i32
  call void @getReuseDistance(i32 %reuse.cast306)
  %1601 = load volatile i32* %13, align 4
  call void @llvm.lifetime.end(i64 4, i8* %1599)
  br label %_ZN9__gnu_cxxL27__exchange_and_add_dispatchEPii.exit.i.i.i406

; <label>:1602                                    ; preds = %1595
  %reuse.cast307 = ptrtoint i32* %1597 to i32
  call void @getReuseDistance(i32 %reuse.cast307)
  %1603 = load i32* %1597, align 4, !tbaa !21
  %1604 = add nsw i32 %1603, -1
  %reuse.cast308 = ptrtoint i32* %1597 to i32
  call void @getReuseDistance(i32 %reuse.cast308)
  store i32 %1604, i32* %1597, align 4, !tbaa !21
  br label %_ZN9__gnu_cxxL27__exchange_and_add_dispatchEPii.exit.i.i.i406

_ZN9__gnu_cxxL27__exchange_and_add_dispatchEPii.exit.i.i.i406: ; preds = %1602, %1598
  %.0.i.i.i.i405 = phi i32 [ %1601, %1598 ], [ %1603, %1602 ]
  %1605 = icmp slt i32 %.0.i.i.i.i405, 1
  br i1 %1605, label %1606, label %1607

; <label>:1606                                    ; preds = %_ZN9__gnu_cxxL27__exchange_and_add_dispatchEPii.exit.i.i.i406
  call void @_ZNSs4_Rep10_M_destroyERKSaIcE(%"struct.std::basic_string<char, std::char_traits<char>, std::allocator<char> >::_Rep"* %1593, %"class.std::allocator"* dereferenceable(1) %14) #1
  br label %1607

; <label>:1607                                    ; preds = %1606, %_ZN9__gnu_cxxL27__exchange_and_add_dispatchEPii.exit.i.i.i406, %1588
  call void @llvm.lifetime.end(i64 1, i8* %1589)
  invoke void @_ZNSsC1EPKcRKSaIcE(%"class.std::basic_string"* %317, i8* getelementptr inbounds ([15 x i8]* @.str28, i32 0, i32 0), %"class.std::allocator"* dereferenceable(1) %318)
          to label %1608 unwind label %2977

; <label>:1608                                    ; preds = %1607
  %1609 = invoke %class.YAML_Element* @_ZN12YAML_Element3getERKSs(%class.YAML_Element* %643, %"class.std::basic_string"* dereferenceable(4) %317)
          to label %1610 unwind label %2981

; <label>:1610                                    ; preds = %1608
  invoke void @_ZNSsC1EPKcRKSaIcE(%"class.std::basic_string"* %319, i8* getelementptr inbounds ([9 x i8]* @.str24, i32 0, i32 0), %"class.std::allocator"* dereferenceable(1) %320)
          to label %1611 unwind label %2985

; <label>:1611                                    ; preds = %1610
  %reuse.cast309 = ptrtoint double* %1167 to i32
  call void @getReuseDistance(i32 %reuse.cast309)
  %1612 = load double* %1167, align 8, !tbaa !22
  %1613 = fdiv double %554, %1612
  %1614 = fdiv double %1613, 1.000000e+06
  %1615 = invoke %class.YAML_Element* @_ZN12YAML_Element3addERKSsd(%class.YAML_Element* %1609, %"class.std::basic_string"* dereferenceable(4) %319, double %1614)
          to label %1616 unwind label %2989

; <label>:1616                                    ; preds = %1611
  %1617 = getelementptr inbounds %"class.std::allocator"* %6, i32 0, i32 0
  call void @llvm.lifetime.start(i64 1, i8* %1617)
  %1618 = getelementptr inbounds %"class.std::basic_string"* %319, i32 0, i32 0, i32 0
  %reuse.cast310 = ptrtoint i8** %1618 to i32
  call void @getReuseDistance(i32 %reuse.cast310)
  %1619 = load i8** %1618, align 4, !tbaa !28
  %1620 = getelementptr inbounds i8* %1619, i32 -12
  %1621 = bitcast i8* %1620 to %"struct.std::basic_string<char, std::char_traits<char>, std::allocator<char> >::_Rep"*
  %1622 = icmp eq i8* %1620, bitcast ([0 x i32]* @_ZNSs4_Rep20_S_empty_rep_storageE to i8*)
  br i1 %1622, label %1635, label %1623, !prof !31

; <label>:1623                                    ; preds = %1616
  %1624 = getelementptr inbounds i8* %1619, i32 -4
  %1625 = bitcast i8* %1624 to i32*
  br i1 icmp ne (i8* bitcast (i32 (i32*, void (i8*)*)* @__pthread_key_create to i8*), i8* null), label %1626, label %1630

; <label>:1626                                    ; preds = %1623
  %1627 = bitcast i32* %5 to i8*
  call void @llvm.lifetime.start(i64 4, i8* %1627)
  %1628 = atomicrmw volatile add i32* %1625, i32 -1 acq_rel
  %reuse.cast311 = ptrtoint i32* %5 to i32
  call void @getReuseDistance(i32 %reuse.cast311)
  store i32 %1628, i32* %5, align 4
  %reuse.cast312 = ptrtoint i32* %5 to i32
  call void @getReuseDistance(i32 %reuse.cast312)
  %1629 = load volatile i32* %5, align 4
  call void @llvm.lifetime.end(i64 4, i8* %1627)
  br label %_ZN9__gnu_cxxL27__exchange_and_add_dispatchEPii.exit.i.i.i418

; <label>:1630                                    ; preds = %1623
  %reuse.cast313 = ptrtoint i32* %1625 to i32
  call void @getReuseDistance(i32 %reuse.cast313)
  %1631 = load i32* %1625, align 4, !tbaa !21
  %1632 = add nsw i32 %1631, -1
  %reuse.cast314 = ptrtoint i32* %1625 to i32
  call void @getReuseDistance(i32 %reuse.cast314)
  store i32 %1632, i32* %1625, align 4, !tbaa !21
  br label %_ZN9__gnu_cxxL27__exchange_and_add_dispatchEPii.exit.i.i.i418

_ZN9__gnu_cxxL27__exchange_and_add_dispatchEPii.exit.i.i.i418: ; preds = %1630, %1626
  %.0.i.i.i.i417 = phi i32 [ %1629, %1626 ], [ %1631, %1630 ]
  %1633 = icmp slt i32 %.0.i.i.i.i417, 1
  br i1 %1633, label %1634, label %1635

; <label>:1634                                    ; preds = %_ZN9__gnu_cxxL27__exchange_and_add_dispatchEPii.exit.i.i.i418
  call void @_ZNSs4_Rep10_M_destroyERKSaIcE(%"struct.std::basic_string<char, std::char_traits<char>, std::allocator<char> >::_Rep"* %1621, %"class.std::allocator"* dereferenceable(1) %6) #1
  br label %1635

; <label>:1635                                    ; preds = %1634, %_ZN9__gnu_cxxL27__exchange_and_add_dispatchEPii.exit.i.i.i418, %1616
  call void @llvm.lifetime.end(i64 1, i8* %1617)
  %1636 = getelementptr inbounds %"class.std::allocator"* %2, i32 0, i32 0
  call void @llvm.lifetime.start(i64 1, i8* %1636)
  %1637 = getelementptr inbounds %"class.std::basic_string"* %317, i32 0, i32 0, i32 0
  %reuse.cast315 = ptrtoint i8** %1637 to i32
  call void @getReuseDistance(i32 %reuse.cast315)
  %1638 = load i8** %1637, align 4, !tbaa !28
  %1639 = getelementptr inbounds i8* %1638, i32 -12
  %1640 = bitcast i8* %1639 to %"struct.std::basic_string<char, std::char_traits<char>, std::allocator<char> >::_Rep"*
  %1641 = icmp eq i8* %1639, bitcast ([0 x i32]* @_ZNSs4_Rep20_S_empty_rep_storageE to i8*)
  br i1 %1641, label %1654, label %1642, !prof !31

; <label>:1642                                    ; preds = %1635
  %1643 = getelementptr inbounds i8* %1638, i32 -4
  %1644 = bitcast i8* %1643 to i32*
  br i1 icmp ne (i8* bitcast (i32 (i32*, void (i8*)*)* @__pthread_key_create to i8*), i8* null), label %1645, label %1649

; <label>:1645                                    ; preds = %1642
  %1646 = bitcast i32* %1 to i8*
  call void @llvm.lifetime.start(i64 4, i8* %1646)
  %1647 = atomicrmw volatile add i32* %1644, i32 -1 acq_rel
  %reuse.cast316 = ptrtoint i32* %1 to i32
  call void @getReuseDistance(i32 %reuse.cast316)
  store i32 %1647, i32* %1, align 4
  %reuse.cast317 = ptrtoint i32* %1 to i32
  call void @getReuseDistance(i32 %reuse.cast317)
  %1648 = load volatile i32* %1, align 4
  call void @llvm.lifetime.end(i64 4, i8* %1646)
  br label %_ZN9__gnu_cxxL27__exchange_and_add_dispatchEPii.exit.i.i.i424

; <label>:1649                                    ; preds = %1642
  %reuse.cast318 = ptrtoint i32* %1644 to i32
  call void @getReuseDistance(i32 %reuse.cast318)
  %1650 = load i32* %1644, align 4, !tbaa !21
  %1651 = add nsw i32 %1650, -1
  %reuse.cast319 = ptrtoint i32* %1644 to i32
  call void @getReuseDistance(i32 %reuse.cast319)
  store i32 %1651, i32* %1644, align 4, !tbaa !21
  br label %_ZN9__gnu_cxxL27__exchange_and_add_dispatchEPii.exit.i.i.i424

_ZN9__gnu_cxxL27__exchange_and_add_dispatchEPii.exit.i.i.i424: ; preds = %1649, %1645
  %.0.i.i.i.i423 = phi i32 [ %1648, %1645 ], [ %1650, %1649 ]
  %1652 = icmp slt i32 %.0.i.i.i.i423, 1
  br i1 %1652, label %1653, label %1654

; <label>:1653                                    ; preds = %_ZN9__gnu_cxxL27__exchange_and_add_dispatchEPii.exit.i.i.i424
  call void @_ZNSs4_Rep10_M_destroyERKSaIcE(%"struct.std::basic_string<char, std::char_traits<char>, std::allocator<char> >::_Rep"* %1640, %"class.std::allocator"* dereferenceable(1) %2) #1
  br label %1654

; <label>:1654                                    ; preds = %1653, %_ZN9__gnu_cxxL27__exchange_and_add_dispatchEPii.exit.i.i.i424, %1635
  call void @llvm.lifetime.end(i64 1, i8* %1636)
  invoke void @_ZNSsC1EPKcRKSaIcE(%"class.std::basic_string"* %321, i8* getelementptr inbounds ([15 x i8]* @.str28, i32 0, i32 0), %"class.std::allocator"* dereferenceable(1) %322)
          to label %1655 unwind label %3029

; <label>:1655                                    ; preds = %1654
  %1656 = invoke %class.YAML_Element* @_ZN12YAML_Element3getERKSs(%class.YAML_Element* %643, %"class.std::basic_string"* dereferenceable(4) %321)
          to label %1657 unwind label %3033

; <label>:1657                                    ; preds = %1655
  invoke void @_ZNSsC1EPKcRKSaIcE(%"class.std::basic_string"* %323, i8* getelementptr inbounds ([9 x i8]* @.str25, i32 0, i32 0), %"class.std::allocator"* dereferenceable(1) %324)
          to label %1658 unwind label %3037

; <label>:1658                                    ; preds = %1657
  %reuse.cast320 = ptrtoint double* %1213 to i32
  call void @getReuseDistance(i32 %reuse.cast320)
  %1659 = load double* %1213, align 8, !tbaa !22
  %1660 = fdiv double %556, %1659
  %1661 = fdiv double %1660, 1.000000e+06
  %1662 = invoke %class.YAML_Element* @_ZN12YAML_Element3addERKSsd(%class.YAML_Element* %1656, %"class.std::basic_string"* dereferenceable(4) %323, double %1661)
          to label %1663 unwind label %3041

; <label>:1663                                    ; preds = %1658
  %1664 = getelementptr inbounds %"class.std::allocator"* %4, i32 0, i32 0
  call void @llvm.lifetime.start(i64 1, i8* %1664)
  %1665 = getelementptr inbounds %"class.std::basic_string"* %323, i32 0, i32 0, i32 0
  %reuse.cast321 = ptrtoint i8** %1665 to i32
  call void @getReuseDistance(i32 %reuse.cast321)
  %1666 = load i8** %1665, align 4, !tbaa !28
  %1667 = getelementptr inbounds i8* %1666, i32 -12
  %1668 = bitcast i8* %1667 to %"struct.std::basic_string<char, std::char_traits<char>, std::allocator<char> >::_Rep"*
  %1669 = icmp eq i8* %1667, bitcast ([0 x i32]* @_ZNSs4_Rep20_S_empty_rep_storageE to i8*)
  br i1 %1669, label %1682, label %1670, !prof !31

; <label>:1670                                    ; preds = %1663
  %1671 = getelementptr inbounds i8* %1666, i32 -4
  %1672 = bitcast i8* %1671 to i32*
  br i1 icmp ne (i8* bitcast (i32 (i32*, void (i8*)*)* @__pthread_key_create to i8*), i8* null), label %1673, label %1677

; <label>:1673                                    ; preds = %1670
  %1674 = bitcast i32* %3 to i8*
  call void @llvm.lifetime.start(i64 4, i8* %1674)
  %1675 = atomicrmw volatile add i32* %1672, i32 -1 acq_rel
  %reuse.cast322 = ptrtoint i32* %3 to i32
  call void @getReuseDistance(i32 %reuse.cast322)
  store i32 %1675, i32* %3, align 4
  %reuse.cast323 = ptrtoint i32* %3 to i32
  call void @getReuseDistance(i32 %reuse.cast323)
  %1676 = load volatile i32* %3, align 4
  call void @llvm.lifetime.end(i64 4, i8* %1674)
  br label %_ZN9__gnu_cxxL27__exchange_and_add_dispatchEPii.exit.i.i.i421

; <label>:1677                                    ; preds = %1670
  %reuse.cast324 = ptrtoint i32* %1672 to i32
  call void @getReuseDistance(i32 %reuse.cast324)
  %1678 = load i32* %1672, align 4, !tbaa !21
  %1679 = add nsw i32 %1678, -1
  %reuse.cast325 = ptrtoint i32* %1672 to i32
  call void @getReuseDistance(i32 %reuse.cast325)
  store i32 %1679, i32* %1672, align 4, !tbaa !21
  br label %_ZN9__gnu_cxxL27__exchange_and_add_dispatchEPii.exit.i.i.i421

_ZN9__gnu_cxxL27__exchange_and_add_dispatchEPii.exit.i.i.i421: ; preds = %1677, %1673
  %.0.i.i.i.i420 = phi i32 [ %1676, %1673 ], [ %1678, %1677 ]
  %1680 = icmp slt i32 %.0.i.i.i.i420, 1
  br i1 %1680, label %1681, label %1682

; <label>:1681                                    ; preds = %_ZN9__gnu_cxxL27__exchange_and_add_dispatchEPii.exit.i.i.i421
  call void @_ZNSs4_Rep10_M_destroyERKSaIcE(%"struct.std::basic_string<char, std::char_traits<char>, std::allocator<char> >::_Rep"* %1668, %"class.std::allocator"* dereferenceable(1) %4) #1
  br label %1682

; <label>:1682                                    ; preds = %1681, %_ZN9__gnu_cxxL27__exchange_and_add_dispatchEPii.exit.i.i.i421, %1663
  call void @llvm.lifetime.end(i64 1, i8* %1664)
  %1683 = getelementptr inbounds %"class.std::allocator"* %8, i32 0, i32 0
  call void @llvm.lifetime.start(i64 1, i8* %1683)
  %1684 = getelementptr inbounds %"class.std::basic_string"* %321, i32 0, i32 0, i32 0
  %reuse.cast326 = ptrtoint i8** %1684 to i32
  call void @getReuseDistance(i32 %reuse.cast326)
  %1685 = load i8** %1684, align 4, !tbaa !28
  %1686 = getelementptr inbounds i8* %1685, i32 -12
  %1687 = bitcast i8* %1686 to %"struct.std::basic_string<char, std::char_traits<char>, std::allocator<char> >::_Rep"*
  %1688 = icmp eq i8* %1686, bitcast ([0 x i32]* @_ZNSs4_Rep20_S_empty_rep_storageE to i8*)
  br i1 %1688, label %1701, label %1689, !prof !31

; <label>:1689                                    ; preds = %1682
  %1690 = getelementptr inbounds i8* %1685, i32 -4
  %1691 = bitcast i8* %1690 to i32*
  br i1 icmp ne (i8* bitcast (i32 (i32*, void (i8*)*)* @__pthread_key_create to i8*), i8* null), label %1692, label %1696

; <label>:1692                                    ; preds = %1689
  %1693 = bitcast i32* %7 to i8*
  call void @llvm.lifetime.start(i64 4, i8* %1693)
  %1694 = atomicrmw volatile add i32* %1691, i32 -1 acq_rel
  %reuse.cast327 = ptrtoint i32* %7 to i32
  call void @getReuseDistance(i32 %reuse.cast327)
  store i32 %1694, i32* %7, align 4
  %reuse.cast328 = ptrtoint i32* %7 to i32
  call void @getReuseDistance(i32 %reuse.cast328)
  %1695 = load volatile i32* %7, align 4
  call void @llvm.lifetime.end(i64 4, i8* %1693)
  br label %_ZN9__gnu_cxxL27__exchange_and_add_dispatchEPii.exit.i.i.i415

; <label>:1696                                    ; preds = %1689
  %reuse.cast329 = ptrtoint i32* %1691 to i32
  call void @getReuseDistance(i32 %reuse.cast329)
  %1697 = load i32* %1691, align 4, !tbaa !21
  %1698 = add nsw i32 %1697, -1
  %reuse.cast330 = ptrtoint i32* %1691 to i32
  call void @getReuseDistance(i32 %reuse.cast330)
  store i32 %1698, i32* %1691, align 4, !tbaa !21
  br label %_ZN9__gnu_cxxL27__exchange_and_add_dispatchEPii.exit.i.i.i415

_ZN9__gnu_cxxL27__exchange_and_add_dispatchEPii.exit.i.i.i415: ; preds = %1696, %1692
  %.0.i.i.i.i414 = phi i32 [ %1695, %1692 ], [ %1697, %1696 ]
  %1699 = icmp slt i32 %.0.i.i.i.i414, 1
  br i1 %1699, label %1700, label %1701

; <label>:1700                                    ; preds = %_ZN9__gnu_cxxL27__exchange_and_add_dispatchEPii.exit.i.i.i415
  call void @_ZNSs4_Rep10_M_destroyERKSaIcE(%"struct.std::basic_string<char, std::char_traits<char>, std::allocator<char> >::_Rep"* %1687, %"class.std::allocator"* dereferenceable(1) %8) #1
  br label %1701

; <label>:1701                                    ; preds = %1700, %_ZN9__gnu_cxxL27__exchange_and_add_dispatchEPii.exit.i.i.i415, %1682
  call void @llvm.lifetime.end(i64 1, i8* %1683)
  invoke void @_ZNSsC1EPKcRKSaIcE(%"class.std::basic_string"* %325, i8* getelementptr inbounds ([15 x i8]* @.str28, i32 0, i32 0), %"class.std::allocator"* dereferenceable(1) %326)
          to label %1702 unwind label %3081

; <label>:1702                                    ; preds = %1701
  %1703 = invoke %class.YAML_Element* @_ZN12YAML_Element3getERKSs(%class.YAML_Element* %643, %"class.std::basic_string"* dereferenceable(4) %325)
          to label %1704 unwind label %3085

; <label>:1704                                    ; preds = %1702
  invoke void @_ZNSsC1EPKcRKSaIcE(%"class.std::basic_string"* %327, i8* getelementptr inbounds ([9 x i8]* @.str26, i32 0, i32 0), %"class.std::allocator"* dereferenceable(1) %328)
          to label %1705 unwind label %3089

; <label>:1705                                    ; preds = %1704
  %reuse.cast331 = ptrtoint double* %1259 to i32
  call void @getReuseDistance(i32 %reuse.cast331)
  %1706 = load double* %1259, align 8, !tbaa !22
  %1707 = fdiv double %558, %1706
  %1708 = fdiv double %1707, 1.000000e+06
  %1709 = invoke %class.YAML_Element* @_ZN12YAML_Element3addERKSsd(%class.YAML_Element* %1703, %"class.std::basic_string"* dereferenceable(4) %327, double %1708)
          to label %1710 unwind label %3093

; <label>:1710                                    ; preds = %1705
  %1711 = getelementptr inbounds %"class.std::allocator"* %10, i32 0, i32 0
  call void @llvm.lifetime.start(i64 1, i8* %1711)
  %1712 = getelementptr inbounds %"class.std::basic_string"* %327, i32 0, i32 0, i32 0
  %reuse.cast332 = ptrtoint i8** %1712 to i32
  call void @getReuseDistance(i32 %reuse.cast332)
  %1713 = load i8** %1712, align 4, !tbaa !28
  %1714 = getelementptr inbounds i8* %1713, i32 -12
  %1715 = bitcast i8* %1714 to %"struct.std::basic_string<char, std::char_traits<char>, std::allocator<char> >::_Rep"*
  %1716 = icmp eq i8* %1714, bitcast ([0 x i32]* @_ZNSs4_Rep20_S_empty_rep_storageE to i8*)
  br i1 %1716, label %1729, label %1717, !prof !31

; <label>:1717                                    ; preds = %1710
  %1718 = getelementptr inbounds i8* %1713, i32 -4
  %1719 = bitcast i8* %1718 to i32*
  br i1 icmp ne (i8* bitcast (i32 (i32*, void (i8*)*)* @__pthread_key_create to i8*), i8* null), label %1720, label %1724

; <label>:1720                                    ; preds = %1717
  %1721 = bitcast i32* %9 to i8*
  call void @llvm.lifetime.start(i64 4, i8* %1721)
  %1722 = atomicrmw volatile add i32* %1719, i32 -1 acq_rel
  %reuse.cast333 = ptrtoint i32* %9 to i32
  call void @getReuseDistance(i32 %reuse.cast333)
  store i32 %1722, i32* %9, align 4
  %reuse.cast334 = ptrtoint i32* %9 to i32
  call void @getReuseDistance(i32 %reuse.cast334)
  %1723 = load volatile i32* %9, align 4
  call void @llvm.lifetime.end(i64 4, i8* %1721)
  br label %_ZN9__gnu_cxxL27__exchange_and_add_dispatchEPii.exit.i.i.i412

; <label>:1724                                    ; preds = %1717
  %reuse.cast335 = ptrtoint i32* %1719 to i32
  call void @getReuseDistance(i32 %reuse.cast335)
  %1725 = load i32* %1719, align 4, !tbaa !21
  %1726 = add nsw i32 %1725, -1
  %reuse.cast336 = ptrtoint i32* %1719 to i32
  call void @getReuseDistance(i32 %reuse.cast336)
  store i32 %1726, i32* %1719, align 4, !tbaa !21
  br label %_ZN9__gnu_cxxL27__exchange_and_add_dispatchEPii.exit.i.i.i412

_ZN9__gnu_cxxL27__exchange_and_add_dispatchEPii.exit.i.i.i412: ; preds = %1724, %1720
  %.0.i.i.i.i411 = phi i32 [ %1723, %1720 ], [ %1725, %1724 ]
  %1727 = icmp slt i32 %.0.i.i.i.i411, 1
  br i1 %1727, label %1728, label %1729

; <label>:1728                                    ; preds = %_ZN9__gnu_cxxL27__exchange_and_add_dispatchEPii.exit.i.i.i412
  call void @_ZNSs4_Rep10_M_destroyERKSaIcE(%"struct.std::basic_string<char, std::char_traits<char>, std::allocator<char> >::_Rep"* %1715, %"class.std::allocator"* dereferenceable(1) %10) #1
  br label %1729

; <label>:1729                                    ; preds = %1728, %_ZN9__gnu_cxxL27__exchange_and_add_dispatchEPii.exit.i.i.i412, %1710
  call void @llvm.lifetime.end(i64 1, i8* %1711)
  %1730 = getelementptr inbounds %"class.std::allocator"* %12, i32 0, i32 0
  call void @llvm.lifetime.start(i64 1, i8* %1730)
  %1731 = getelementptr inbounds %"class.std::basic_string"* %325, i32 0, i32 0, i32 0
  %reuse.cast337 = ptrtoint i8** %1731 to i32
  call void @getReuseDistance(i32 %reuse.cast337)
  %1732 = load i8** %1731, align 4, !tbaa !28
  %1733 = getelementptr inbounds i8* %1732, i32 -12
  %1734 = bitcast i8* %1733 to %"struct.std::basic_string<char, std::char_traits<char>, std::allocator<char> >::_Rep"*
  %1735 = icmp eq i8* %1733, bitcast ([0 x i32]* @_ZNSs4_Rep20_S_empty_rep_storageE to i8*)
  br i1 %1735, label %1748, label %1736, !prof !31

; <label>:1736                                    ; preds = %1729
  %1737 = getelementptr inbounds i8* %1732, i32 -4
  %1738 = bitcast i8* %1737 to i32*
  br i1 icmp ne (i8* bitcast (i32 (i32*, void (i8*)*)* @__pthread_key_create to i8*), i8* null), label %1739, label %1743

; <label>:1739                                    ; preds = %1736
  %1740 = bitcast i32* %11 to i8*
  call void @llvm.lifetime.start(i64 4, i8* %1740)
  %1741 = atomicrmw volatile add i32* %1738, i32 -1 acq_rel
  %reuse.cast338 = ptrtoint i32* %11 to i32
  call void @getReuseDistance(i32 %reuse.cast338)
  store i32 %1741, i32* %11, align 4
  %reuse.cast339 = ptrtoint i32* %11 to i32
  call void @getReuseDistance(i32 %reuse.cast339)
  %1742 = load volatile i32* %11, align 4
  call void @llvm.lifetime.end(i64 4, i8* %1740)
  br label %_ZN9__gnu_cxxL27__exchange_and_add_dispatchEPii.exit.i.i.i409

; <label>:1743                                    ; preds = %1736
  %reuse.cast340 = ptrtoint i32* %1738 to i32
  call void @getReuseDistance(i32 %reuse.cast340)
  %1744 = load i32* %1738, align 4, !tbaa !21
  %1745 = add nsw i32 %1744, -1
  %reuse.cast341 = ptrtoint i32* %1738 to i32
  call void @getReuseDistance(i32 %reuse.cast341)
  store i32 %1745, i32* %1738, align 4, !tbaa !21
  br label %_ZN9__gnu_cxxL27__exchange_and_add_dispatchEPii.exit.i.i.i409

_ZN9__gnu_cxxL27__exchange_and_add_dispatchEPii.exit.i.i.i409: ; preds = %1743, %1739
  %.0.i.i.i.i408 = phi i32 [ %1742, %1739 ], [ %1744, %1743 ]
  %1746 = icmp slt i32 %.0.i.i.i.i408, 1
  br i1 %1746, label %1747, label %1748

; <label>:1747                                    ; preds = %_ZN9__gnu_cxxL27__exchange_and_add_dispatchEPii.exit.i.i.i409
  call void @_ZNSs4_Rep10_M_destroyERKSaIcE(%"struct.std::basic_string<char, std::char_traits<char>, std::allocator<char> >::_Rep"* %1734, %"class.std::allocator"* dereferenceable(1) %12) #1
  br label %1748

; <label>:1748                                    ; preds = %1747, %_ZN9__gnu_cxxL27__exchange_and_add_dispatchEPii.exit.i.i.i409, %1729
  call void @llvm.lifetime.end(i64 1, i8* %1730)
  invoke void @_ZN8YAML_Doc12generateYAMLEv(%"class.std::basic_string"* sret %yaml, %class.YAML_Doc* %doc)
          to label %1749 unwind label %3133

; <label>:1749                                    ; preds = %1748
  %1750 = getelementptr inbounds %"class.std::basic_string"* %yaml, i32 0, i32 0, i32 0
  %reuse.cast342 = ptrtoint i8** %1750 to i32
  call void @getReuseDistance(i32 %reuse.cast342)
  %1751 = load i8** %1750, align 4, !tbaa !28
  %1752 = getelementptr inbounds i8* %1751, i32 -12
  %1753 = bitcast i8* %1752 to i32*
  %reuse.cast343 = ptrtoint i32* %1753 to i32
  call void @getReuseDistance(i32 %reuse.cast343)
  %1754 = load i32* %1753, align 4, !tbaa !32
  %1755 = invoke dereferenceable(140) %"class.std::basic_ostream"* @_ZSt16__ostream_insertIcSt11char_traitsIcEERSt13basic_ostreamIT_T0_ES6_PKS3_i(%"class.std::basic_ostream"* dereferenceable(140) @_ZSt4cout, i8* %1751, i32 %1754)
          to label %_ZStlsIcSt11char_traitsIcESaIcEERSt13basic_ostreamIT_T0_ES7_RKSbIS4_S5_T1_E.exit unwind label %3137

_ZStlsIcSt11char_traitsIcESaIcEERSt13basic_ostreamIT_T0_ES7_RKSbIS4_S5_T1_E.exit: ; preds = %1749
  %1756 = getelementptr inbounds %"class.std::allocator"* %18, i32 0, i32 0
  call void @llvm.lifetime.start(i64 1, i8* %1756)
  %reuse.cast344 = ptrtoint i8** %1750 to i32
  call void @getReuseDistance(i32 %reuse.cast344)
  %1757 = load i8** %1750, align 4, !tbaa !28
  %1758 = getelementptr inbounds i8* %1757, i32 -12
  %1759 = bitcast i8* %1758 to %"struct.std::basic_string<char, std::char_traits<char>, std::allocator<char> >::_Rep"*
  %1760 = icmp eq i8* %1758, bitcast ([0 x i32]* @_ZNSs4_Rep20_S_empty_rep_storageE to i8*)
  br i1 %1760, label %3158, label %1761, !prof !31

; <label>:1761                                    ; preds = %_ZStlsIcSt11char_traitsIcESaIcEERSt13basic_ostreamIT_T0_ES7_RKSbIS4_S5_T1_E.exit
  %1762 = getelementptr inbounds i8* %1757, i32 -4
  %1763 = bitcast i8* %1762 to i32*
  br i1 icmp ne (i8* bitcast (i32 (i32*, void (i8*)*)* @__pthread_key_create to i8*), i8* null), label %1764, label %1768

; <label>:1764                                    ; preds = %1761
  %1765 = bitcast i32* %17 to i8*
  call void @llvm.lifetime.start(i64 4, i8* %1765)
  %1766 = atomicrmw volatile add i32* %1763, i32 -1 acq_rel
  %reuse.cast345 = ptrtoint i32* %17 to i32
  call void @getReuseDistance(i32 %reuse.cast345)
  store i32 %1766, i32* %17, align 4
  %reuse.cast346 = ptrtoint i32* %17 to i32
  call void @getReuseDistance(i32 %reuse.cast346)
  %1767 = load volatile i32* %17, align 4
  call void @llvm.lifetime.end(i64 4, i8* %1765)
  br label %_ZN9__gnu_cxxL27__exchange_and_add_dispatchEPii.exit.i.i.i400

; <label>:1768                                    ; preds = %1761
  %reuse.cast347 = ptrtoint i32* %1763 to i32
  call void @getReuseDistance(i32 %reuse.cast347)
  %1769 = load i32* %1763, align 4, !tbaa !21
  %1770 = add nsw i32 %1769, -1
  %reuse.cast348 = ptrtoint i32* %1763 to i32
  call void @getReuseDistance(i32 %reuse.cast348)
  store i32 %1770, i32* %1763, align 4, !tbaa !21
  br label %_ZN9__gnu_cxxL27__exchange_and_add_dispatchEPii.exit.i.i.i400

_ZN9__gnu_cxxL27__exchange_and_add_dispatchEPii.exit.i.i.i400: ; preds = %1768, %1764
  %.0.i.i.i.i399 = phi i32 [ %1767, %1764 ], [ %1769, %1768 ]
  %1771 = icmp slt i32 %.0.i.i.i.i399, 1
  br i1 %1771, label %1772, label %3158

; <label>:1772                                    ; preds = %_ZN9__gnu_cxxL27__exchange_and_add_dispatchEPii.exit.i.i.i400
  call void @_ZNSs4_Rep10_M_destroyERKSaIcE(%"struct.std::basic_string<char, std::char_traits<char>, std::allocator<char> >::_Rep"* %1759, %"class.std::allocator"* dereferenceable(1) %18) #1
  br label %3158

; <label>:1773                                    ; preds = %543
  %1774 = landingpad { i8*, i32 } personality i8* bitcast (i32 (...)* @__gxx_personality_v0 to i8*)
          cleanup
  %1775 = extractvalue { i8*, i32 } %1774, 0
  %1776 = extractvalue { i8*, i32 } %1774, 1
  br label %_ZNSsD1Ev.exit383

; <label>:1777                                    ; preds = %562
  %1778 = landingpad { i8*, i32 } personality i8* bitcast (i32 (...)* @__gxx_personality_v0 to i8*)
          cleanup
  %1779 = extractvalue { i8*, i32 } %1778, 0
  %1780 = extractvalue { i8*, i32 } %1778, 1
  br label %_ZNSsD1Ev.exit389

; <label>:1781                                    ; preds = %563
  %1782 = landingpad { i8*, i32 } personality i8* bitcast (i32 (...)* @__gxx_personality_v0 to i8*)
          cleanup
  %1783 = extractvalue { i8*, i32 } %1782, 0
  %1784 = extractvalue { i8*, i32 } %1782, 1
  br label %_ZNSsD1Ev.exit395

; <label>:1785                                    ; preds = %564
  %1786 = landingpad { i8*, i32 } personality i8* bitcast (i32 (...)* @__gxx_personality_v0 to i8*)
          cleanup
  %1787 = extractvalue { i8*, i32 } %1786, 0
  %1788 = extractvalue { i8*, i32 } %1786, 1
  br label %_ZNSsD1Ev.exit398

; <label>:1789                                    ; preds = %565
  %1790 = landingpad { i8*, i32 } personality i8* bitcast (i32 (...)* @__gxx_personality_v0 to i8*)
          cleanup
  %1791 = extractvalue { i8*, i32 } %1790, 0
  %1792 = extractvalue { i8*, i32 } %1790, 1
  %1793 = getelementptr inbounds %"class.std::allocator"* %20, i32 0, i32 0
  call void @llvm.lifetime.start(i64 1, i8* %1793)
  %1794 = getelementptr inbounds %"class.std::basic_string"* %227, i32 0, i32 0, i32 0
  %reuse.cast349 = ptrtoint i8** %1794 to i32
  call void @getReuseDistance(i32 %reuse.cast349)
  %1795 = load i8** %1794, align 4, !tbaa !28
  %1796 = getelementptr inbounds i8* %1795, i32 -12
  %1797 = bitcast i8* %1796 to %"struct.std::basic_string<char, std::char_traits<char>, std::allocator<char> >::_Rep"*
  %1798 = icmp eq i8* %1796, bitcast ([0 x i32]* @_ZNSs4_Rep20_S_empty_rep_storageE to i8*)
  br i1 %1798, label %_ZNSsD1Ev.exit398, label %1799, !prof !31

; <label>:1799                                    ; preds = %1789
  %1800 = getelementptr inbounds i8* %1795, i32 -4
  %1801 = bitcast i8* %1800 to i32*
  br i1 icmp ne (i8* bitcast (i32 (i32*, void (i8*)*)* @__pthread_key_create to i8*), i8* null), label %1802, label %1806

; <label>:1802                                    ; preds = %1799
  %1803 = bitcast i32* %19 to i8*
  call void @llvm.lifetime.start(i64 4, i8* %1803)
  %1804 = atomicrmw volatile add i32* %1801, i32 -1 acq_rel
  %reuse.cast350 = ptrtoint i32* %19 to i32
  call void @getReuseDistance(i32 %reuse.cast350)
  store i32 %1804, i32* %19, align 4
  %reuse.cast351 = ptrtoint i32* %19 to i32
  call void @getReuseDistance(i32 %reuse.cast351)
  %1805 = load volatile i32* %19, align 4
  call void @llvm.lifetime.end(i64 4, i8* %1803)
  br label %_ZN9__gnu_cxxL27__exchange_and_add_dispatchEPii.exit.i.i.i397

; <label>:1806                                    ; preds = %1799
  %reuse.cast352 = ptrtoint i32* %1801 to i32
  call void @getReuseDistance(i32 %reuse.cast352)
  %1807 = load i32* %1801, align 4, !tbaa !21
  %1808 = add nsw i32 %1807, -1
  %reuse.cast353 = ptrtoint i32* %1801 to i32
  call void @getReuseDistance(i32 %reuse.cast353)
  store i32 %1808, i32* %1801, align 4, !tbaa !21
  br label %_ZN9__gnu_cxxL27__exchange_and_add_dispatchEPii.exit.i.i.i397

_ZN9__gnu_cxxL27__exchange_and_add_dispatchEPii.exit.i.i.i397: ; preds = %1806, %1802
  %.0.i.i.i.i396 = phi i32 [ %1805, %1802 ], [ %1807, %1806 ]
  %1809 = icmp slt i32 %.0.i.i.i.i396, 1
  br i1 %1809, label %1810, label %_ZNSsD1Ev.exit398

; <label>:1810                                    ; preds = %_ZN9__gnu_cxxL27__exchange_and_add_dispatchEPii.exit.i.i.i397
  call void @_ZNSs4_Rep10_M_destroyERKSaIcE(%"struct.std::basic_string<char, std::char_traits<char>, std::allocator<char> >::_Rep"* %1797, %"class.std::allocator"* dereferenceable(1) %20) #1
  br label %_ZNSsD1Ev.exit398

_ZNSsD1Ev.exit398:                                ; preds = %1810, %_ZN9__gnu_cxxL27__exchange_and_add_dispatchEPii.exit.i.i.i397, %1789, %1785
  %.04 = phi i8* [ %1787, %1785 ], [ %1791, %1789 ], [ %1791, %_ZN9__gnu_cxxL27__exchange_and_add_dispatchEPii.exit.i.i.i397 ], [ %1791, %1810 ]
  %.0 = phi i32 [ %1788, %1785 ], [ %1792, %1789 ], [ %1792, %_ZN9__gnu_cxxL27__exchange_and_add_dispatchEPii.exit.i.i.i397 ], [ %1792, %1810 ]
  %1811 = getelementptr inbounds %"class.std::allocator"* %22, i32 0, i32 0
  call void @llvm.lifetime.start(i64 1, i8* %1811)
  %1812 = getelementptr inbounds %"class.std::basic_string"* %225, i32 0, i32 0, i32 0
  %reuse.cast354 = ptrtoint i8** %1812 to i32
  call void @getReuseDistance(i32 %reuse.cast354)
  %1813 = load i8** %1812, align 4, !tbaa !28
  %1814 = getelementptr inbounds i8* %1813, i32 -12
  %1815 = bitcast i8* %1814 to %"struct.std::basic_string<char, std::char_traits<char>, std::allocator<char> >::_Rep"*
  %1816 = icmp eq i8* %1814, bitcast ([0 x i32]* @_ZNSs4_Rep20_S_empty_rep_storageE to i8*)
  br i1 %1816, label %_ZNSsD1Ev.exit395, label %1817, !prof !31

; <label>:1817                                    ; preds = %_ZNSsD1Ev.exit398
  %1818 = getelementptr inbounds i8* %1813, i32 -4
  %1819 = bitcast i8* %1818 to i32*
  br i1 icmp ne (i8* bitcast (i32 (i32*, void (i8*)*)* @__pthread_key_create to i8*), i8* null), label %1820, label %1824

; <label>:1820                                    ; preds = %1817
  %1821 = bitcast i32* %21 to i8*
  call void @llvm.lifetime.start(i64 4, i8* %1821)
  %1822 = atomicrmw volatile add i32* %1819, i32 -1 acq_rel
  %reuse.cast355 = ptrtoint i32* %21 to i32
  call void @getReuseDistance(i32 %reuse.cast355)
  store i32 %1822, i32* %21, align 4
  %reuse.cast356 = ptrtoint i32* %21 to i32
  call void @getReuseDistance(i32 %reuse.cast356)
  %1823 = load volatile i32* %21, align 4
  call void @llvm.lifetime.end(i64 4, i8* %1821)
  br label %_ZN9__gnu_cxxL27__exchange_and_add_dispatchEPii.exit.i.i.i394

; <label>:1824                                    ; preds = %1817
  %reuse.cast357 = ptrtoint i32* %1819 to i32
  call void @getReuseDistance(i32 %reuse.cast357)
  %1825 = load i32* %1819, align 4, !tbaa !21
  %1826 = add nsw i32 %1825, -1
  %reuse.cast358 = ptrtoint i32* %1819 to i32
  call void @getReuseDistance(i32 %reuse.cast358)
  store i32 %1826, i32* %1819, align 4, !tbaa !21
  br label %_ZN9__gnu_cxxL27__exchange_and_add_dispatchEPii.exit.i.i.i394

_ZN9__gnu_cxxL27__exchange_and_add_dispatchEPii.exit.i.i.i394: ; preds = %1824, %1820
  %.0.i.i.i.i393 = phi i32 [ %1823, %1820 ], [ %1825, %1824 ]
  %1827 = icmp slt i32 %.0.i.i.i.i393, 1
  br i1 %1827, label %1828, label %_ZNSsD1Ev.exit395

; <label>:1828                                    ; preds = %_ZN9__gnu_cxxL27__exchange_and_add_dispatchEPii.exit.i.i.i394
  call void @_ZNSs4_Rep10_M_destroyERKSaIcE(%"struct.std::basic_string<char, std::char_traits<char>, std::allocator<char> >::_Rep"* %1815, %"class.std::allocator"* dereferenceable(1) %22) #1
  br label %_ZNSsD1Ev.exit395

_ZNSsD1Ev.exit395:                                ; preds = %1828, %_ZN9__gnu_cxxL27__exchange_and_add_dispatchEPii.exit.i.i.i394, %_ZNSsD1Ev.exit398, %1781
  %.110 = phi i8* [ %1783, %1781 ], [ %.04, %_ZNSsD1Ev.exit398 ], [ %.04, %_ZN9__gnu_cxxL27__exchange_and_add_dispatchEPii.exit.i.i.i394 ], [ %.04, %1828 ]
  %.1 = phi i32 [ %1784, %1781 ], [ %.0, %_ZNSsD1Ev.exit398 ], [ %.0, %_ZN9__gnu_cxxL27__exchange_and_add_dispatchEPii.exit.i.i.i394 ], [ %.0, %1828 ]
  %1829 = getelementptr inbounds %"class.std::allocator"* %26, i32 0, i32 0
  call void @llvm.lifetime.start(i64 1, i8* %1829)
  %1830 = getelementptr inbounds %"class.std::basic_string"* %223, i32 0, i32 0, i32 0
  %reuse.cast359 = ptrtoint i8** %1830 to i32
  call void @getReuseDistance(i32 %reuse.cast359)
  %1831 = load i8** %1830, align 4, !tbaa !28
  %1832 = getelementptr inbounds i8* %1831, i32 -12
  %1833 = bitcast i8* %1832 to %"struct.std::basic_string<char, std::char_traits<char>, std::allocator<char> >::_Rep"*
  %1834 = icmp eq i8* %1832, bitcast ([0 x i32]* @_ZNSs4_Rep20_S_empty_rep_storageE to i8*)
  br i1 %1834, label %_ZNSsD1Ev.exit389, label %1835, !prof !31

; <label>:1835                                    ; preds = %_ZNSsD1Ev.exit395
  %1836 = getelementptr inbounds i8* %1831, i32 -4
  %1837 = bitcast i8* %1836 to i32*
  br i1 icmp ne (i8* bitcast (i32 (i32*, void (i8*)*)* @__pthread_key_create to i8*), i8* null), label %1838, label %1842

; <label>:1838                                    ; preds = %1835
  %1839 = bitcast i32* %25 to i8*
  call void @llvm.lifetime.start(i64 4, i8* %1839)
  %1840 = atomicrmw volatile add i32* %1837, i32 -1 acq_rel
  %reuse.cast360 = ptrtoint i32* %25 to i32
  call void @getReuseDistance(i32 %reuse.cast360)
  store i32 %1840, i32* %25, align 4
  %reuse.cast361 = ptrtoint i32* %25 to i32
  call void @getReuseDistance(i32 %reuse.cast361)
  %1841 = load volatile i32* %25, align 4
  call void @llvm.lifetime.end(i64 4, i8* %1839)
  br label %_ZN9__gnu_cxxL27__exchange_and_add_dispatchEPii.exit.i.i.i388

; <label>:1842                                    ; preds = %1835
  %reuse.cast362 = ptrtoint i32* %1837 to i32
  call void @getReuseDistance(i32 %reuse.cast362)
  %1843 = load i32* %1837, align 4, !tbaa !21
  %1844 = add nsw i32 %1843, -1
  %reuse.cast363 = ptrtoint i32* %1837 to i32
  call void @getReuseDistance(i32 %reuse.cast363)
  store i32 %1844, i32* %1837, align 4, !tbaa !21
  br label %_ZN9__gnu_cxxL27__exchange_and_add_dispatchEPii.exit.i.i.i388

_ZN9__gnu_cxxL27__exchange_and_add_dispatchEPii.exit.i.i.i388: ; preds = %1842, %1838
  %.0.i.i.i.i387 = phi i32 [ %1841, %1838 ], [ %1843, %1842 ]
  %1845 = icmp slt i32 %.0.i.i.i.i387, 1
  br i1 %1845, label %1846, label %_ZNSsD1Ev.exit389

; <label>:1846                                    ; preds = %_ZN9__gnu_cxxL27__exchange_and_add_dispatchEPii.exit.i.i.i388
  call void @_ZNSs4_Rep10_M_destroyERKSaIcE(%"struct.std::basic_string<char, std::char_traits<char>, std::allocator<char> >::_Rep"* %1833, %"class.std::allocator"* dereferenceable(1) %26) #1
  br label %_ZNSsD1Ev.exit389

_ZNSsD1Ev.exit389:                                ; preds = %1846, %_ZN9__gnu_cxxL27__exchange_and_add_dispatchEPii.exit.i.i.i388, %_ZNSsD1Ev.exit395, %1777
  %.211 = phi i8* [ %1779, %1777 ], [ %.110, %_ZNSsD1Ev.exit395 ], [ %.110, %_ZN9__gnu_cxxL27__exchange_and_add_dispatchEPii.exit.i.i.i388 ], [ %.110, %1846 ]
  %.2 = phi i32 [ %1780, %1777 ], [ %.1, %_ZNSsD1Ev.exit395 ], [ %.1, %_ZN9__gnu_cxxL27__exchange_and_add_dispatchEPii.exit.i.i.i388 ], [ %.1, %1846 ]
  %1847 = getelementptr inbounds %"class.std::allocator"* %30, i32 0, i32 0
  call void @llvm.lifetime.start(i64 1, i8* %1847)
  %1848 = getelementptr inbounds %"class.std::basic_string"* %221, i32 0, i32 0, i32 0
  %reuse.cast364 = ptrtoint i8** %1848 to i32
  call void @getReuseDistance(i32 %reuse.cast364)
